(dp1
S'output'
p2
S'Unable to open included view file: /usr/userfs/r/rs1019/iapt/web2py/applications/BootUp/views/subviews\\displayProjectInformation.html'
p3
sS'layer'
p4
S'ParserContainer'
p5
sS'code'
p6
S'{{extend "bootup-profile-layout.html"}}\n\n<div class="well span12">\n    <div class="tabbable">\n        <ul class="nav nav-tabs">\n            <li class="active"><a href="#tab1" data-toggle="tab"><h4>Open for Pledges </h4></a></li>\n            <li><a href="#tab2" data-toggle="tab"> <h4> Not Available </h4> </a></li>\n            <li><a href="#tab3" data-toggle="tab"><h4> Funded </h4></a></li>\n            <li><a href="#tab4" data-toggle="tab"><h4> Not Funded </h4></a></li>\n        </ul>\n        <div class="tab-content">\n            <div class="tab-pane active" id="tab1">\n\n                {{if len(open_for_pledges_projects) == 0:}}\n                <h1> You have no bootables open for pledges</h1>\n                {{else:}}\n                {{for project in open_for_pledges_projects:}}\n                    <div class="row">\n                        {{include "subviews\\displayProjectInformation.html"}}\n                        <div class="span3">\n                            <a href="{{=URL(\'projects\',\'project\', args=project.id)}}"><button class="btn btn-inverse btn-block" type="button">View Bootable Page</button></a>\n                            <br>\n                            <a href="{{=URL(\'profile\',\'close_from_pledges\', args=project.id)}}"><button class="btn btn-danger" type="button">Close From Pledges</button></a>\n\n                        </div>\n                    </div>\n                    <hr>\n                {{pass}}\n                {{pass}}\n\n\n\n            </div>\n            <div class="tab-pane" id="tab2">\n\n                 {{if len(not_available_projects) == 0:}}\n                <h1> You have no bootables that are unavailable</h1>\n                {{else:}}\n\n                {{for project in not_available_projects:}}\n                    <div class="row">\n                        {{include "subviews\\displayProjectInformation.html"}}\n                        <div class="span3">\n                            <a href="{{=URL(\'profile\',\'view_project\', args=project.id)}}"><button class="btn btn-inverse btn-block" type="button">View/Edit</button> </a>\n                            <br>\n                            <a href="{{=URL(\'profile\',\'confirm_open_for_pledges\', args=project.id)}}"><button class="btn btn-info btn-block" type="button">Open bootable for pledges</button> </a>\n                            <br>\n                            <a href="{{=URL(\'profile\',\'rewards\', args=project.id)}}"><button class="btn btn-block btn-primary" type="button">View/Add Rewards</button></a>\n                            <br>\n\n                            {{=A(BUTTON(\'Delete\',_class="btn btn-danger"), callback= URL(\'delete_project\', vars= dict(project_id = project.id) ))}}\n\n                        </div>\n                    </div>\n                    <hr>\n                {{pass}}\n                {{pass}}\n\n\n\n            </div>\n            <div class="tab-pane" id="tab3">\n\n                 {{if len(funded_projects) == 0:}}\n                <h1> You have no funded bootables</h1>\n                {{else:}}\n\n                {{for project in funded_projects:}}\n                    <div class="row">\n                       {{include "subviews\\displayProjectInformation.html"}}\n                        <div class="span3">\n                            <button class="btn btn-inverse btn-block" type="button">View Bootable Page</button>\n\n                        </div>\n                    </div>\n                    <hr>\n                {{pass}}\n                {{pass}}\n\n\n\n\n            </div>\n            <div class="tab-pane" id="tab4">\n\n                 {{if len(not_funded_projects) == 0:}}\n                <h1> You have no bootables that finished unfunded</h1>\n                {{else:}}\n\n                 {{for project in not_funded_projects:}}\n                    <div class="row">\n                        {{include "subviews\\displayProjectInformation.html"}}\n                        <div class="span3">\n                            <button class="btn btn-inverse btn-block" type="button">View Bootable Page</button>\n                             <br>\n                            <a href="{{=URL(\'profile\',\'confirm_open_for_pledges\', args=project.id)}}"><button class="btn btn-block btn-info" type="button">Open bootable for Pledges</button></a>\n\n                        </div>\n                    </div>\n                    <hr>\n                {{pass}}\n                {{pass}}\n\n\n            </div>\n        </div>\n    </div>\n</div>\n\n\n\n'
p7
sS'snapshot'
p8
(dp9
S'exception'
p10
(dp11
S'__getslice__'
p12
S"<method-wrapper '__getslice__' of exceptions.IOError object>"
p13
sS'__str__'
p14
S"<method-wrapper '__str__' of exceptions.IOError object>"
p15
sS'__reduce__'
p16
S'<built-in method __reduce__ of exceptions.IOError object>'
p17
sS'__dict__'
p18
S'{}'
p19
sS'__sizeof__'
p20
S'<built-in method __sizeof__ of exceptions.IOError object>'
p21
sS'__init__'
p22
S"<method-wrapper '__init__' of exceptions.IOError object>"
p23
sS'__setattr__'
p24
S"<method-wrapper '__setattr__' of exceptions.IOError object>"
p25
sS'__reduce_ex__'
p26
S'<built-in method __reduce_ex__ of exceptions.IOError object>'
p27
sS'__new__'
p28
S'<built-in method __new__ of type object>'
p29
sS'errno'
p30
S'2'
sS'__format__'
p31
S'<built-in method __format__ of exceptions.IOError object>'
p32
sS'__class__'
p33
S"<type 'exceptions.IOError'>"
p34
sS'filename'
p35
S"r'/usr/userfs/r/rs1019/iapt/web2py/applications/BootUp/views/subviews\\displayProjectInformation.html'"
p36
sS'__doc__'
p37
S"'I/O operation failed.'"
p38
sS'__getitem__'
p39
S"<method-wrapper '__getitem__' of exceptions.IOError object>"
p40
sS'__setstate__'
p41
S'<built-in method __setstate__ of exceptions.IOError object>'
p42
sS'__getattribute__'
p43
S"<method-wrapper '__getattribute__' of exceptions.IOError object>"
p44
sS'args'
p45
S"(2, 'No such file or directory')"
p46
sS'__subclasshook__'
p47
S'<built-in method __subclasshook__ of type object>'
p48
sS'__unicode__'
p49
S'<built-in method __unicode__ of exceptions.IOError object>'
p50
sS'strerror'
p51
S"'No such file or directory'"
p52
sS'__delattr__'
p53
S"<method-wrapper '__delattr__' of exceptions.IOError object>"
p54
sS'__repr__'
p55
S"<method-wrapper '__repr__' of exceptions.IOError object>"
p56
sS'__hash__'
p57
S"<method-wrapper '__hash__' of exceptions.IOError object>"
p58
ssS'evalue'
p59
S"[Errno 2] No such file or directory: '/usr/userfs/r/rs1019/iapt/web2py/applications/BootUp/views/subviews\\\\displayProjectInformation.html'"
p60
sS'frames'
p61
(lp62
(dp63
S'file'
p64
S'/usr/userfs/r/rs1019/iapt/web2py/gluon/template.py'
p65
sS'dump'
p66
(dp67
S'builtinopen'
p68
S'<built-in function open>'
p69
sS'fileobj'
p70
S'undefined'
p71
sS'filepath'
p72
S"r'/usr/userfs/r/rs1019/iapt/web2py/applications/BootUp/views/subviews\\displayProjectInformation.html'"
p73
ssS'lnum'
p74
I450
sS'lines'
p75
(dp76
I448
S'        # try to read the text.'
p77
sI449
S'        try:'
p78
sI450
S"            fileobj = open(filepath, 'rb')"
p79
sI451
S'            text = fileobj.read()'
p80
sI452
S'            fileobj.close()'
p81
sI453
S'        except IOError:'
p82
sI454
S"            self._raise_error('Unable to open included view file: ' + filepath)"
p83
sI445
S'        # Get the path of the file on the system.'
p84
sI446
S'        filepath = self.path and os.path.join(self.path, filename) or filename'
p85
sI447
S''
ssS'call'
p86
S"(self=<gluon.template.TemplateParser object>, filename=r'subviews\\displayProjectInformation.html')"
p87
sS'func'
p88
S'_get_file_text'
p89
sasS'pyver'
p90
S'Python 2.7.6: /usr/bin/python (prefix: /usr)'
p91
sS'etype'
p92
S"<type 'exceptions.IOError'>"
p93
sS'date'
p94
S'Sat Nov 29 14:06:53 2014'
p95
sS'locals'
p96
(dp97
S'self'
p98
S'<gluon.template.TemplateParser object>'
p99
sS'filepath'
p100
S"r'/usr/userfs/r/rs1019/iapt/web2py/applications/BootUp/views/subviews\\displayProjectInformation.html'"
p101
sS'context'
p102
S"{'A': <class 'gluon.html.A'>, 'ANY_OF': <class 'gluon.validators.ANY_OF'>, 'ASSIGNJS': <function ASSIGNJS>, 'Auth': <class 'gluon.tools.Auth'>, 'B': <class 'gluon.html.B'>, 'BEAUTIFY': <class 'gluon.html.BEAUTIFY'>, 'BODY': <class 'gluon.html.BODY'>, 'BR': <class 'gluon.html.BR'>, 'BUTTON': <class 'gluon.html.BUTTON'>, 'CAT': <class 'gluon.html.CAT'>, ...}"
p103
sg35
S"r'subviews\\displayProjectInformation.html'"
p104
sssS'traceback'
p105
S'Traceback (most recent call last):\n  File "/usr/userfs/r/rs1019/iapt/web2py/gluon/template.py", line 450, in _get_file_text\n    fileobj = open(filepath, \'rb\')\nIOError: [Errno 2] No such file or directory: \'/usr/userfs/r/rs1019/iapt/web2py/applications/BootUp/views/subviews\\\\displayProjectInformation.html\'\n'
p106
s.