(dp1
S'output'
p2
S"<type 'exceptions.ValueError'> dictionary update sequence element #0 has length 1; 2 is required"
p3
sS'layer'
p4
S'/usr/userfs/r/rs1019/iapt/web2py/applications/BootUp/controllers/profile.py'
p5
sS'code'
p6
S'import datetime\n\nCOUNTRIES=( \'United Kingdom\', \'United States\', \'Afghanistan\', \'Albania\', \'Algeria\', \'Andorra\', \'Angola\', \'Antigua and Barbuda\', \'Argentina\', \'Armenia\', \'Australia\', \'Austria\', \'Azerbaijan\', \'Bahamas\', \'Bahrain\', \'Bangladesh\', \'Barbados\', \'Belarus\', \'Belgium\', \'Belize\', \'Benin\', \'Bhutan\', \'Bolivia\', \'Bosnia and Herzegovina\', \'Botswana\', \'Brazil\', \'Brunei\', \'Bulgaria\', \'Burkina Faso\', \'Burundi\', \'Cambodia\', \'Cameroon\', \'Canada\', \'Cape Verde\', \'Central African Republic\', \'Chad\', \'Chile\', \'China\', \'Colombia\', \'Comoros\', \'Congo\', \'Costa Rica\', \'Ivory Coast\', \'Croatia\', \'Cuba\', \'Cyprus\', \'Czech Republic\', \'Denmark\', \'Djibouti\', \'Dominica\', \'Dominican Republic\', \'East Timor\', \'Ecuador\', \'Egypt\', \'El Salvador\', \'Equatorial Guinea\', \'Eritrea\', \'Estonia\', \'Ethiopia\', \'Fiji\', \'Finland\', \'France\', \'Gabon\', \'Gambia\', \'Georgia\', \'Germany\', \'Ghana\', \'Greece\', \'Grenada\', \'Guatemala\', \'Guinea\', \'Guinea-Bissau\', \'Guyana\', \'Haiti\', \'Honduras\', \'Hong Kong\', \'Hungary\', \'Iceland\', \'India\', \'Indonesia\', \'Iran\', \'Iraq\', \'Ireland\', \'Israel\', \'Italy\', \'Jamaica\', \'Japan\', \'Jordan\', \'Kazakhstan\', \'Kenya\', \'Kiribati\', \'North Korea\',\'South Korea\', \'Kuwait\', \'Kyrgyzstan\', \'Laos\', \'Latvia\', \'Lebanon\', \'Lesotho\', \'Liberia\', \'Libya\', \'Liechtenstein\', \'Lithuania\', \'Luxembourg\', \'FYROM\', \'Madagascar\', \'Malawi\', \'Malaysia\', \'Maldives\', \'Mali\', \'Malta\', \'Marshall Islands\', \'Mauritania\', \'Mauritius\', \'Mexico\', \'Micronesia\', \'Moldova\', \'Monaco\', \'Mongolia\', \'Montenegro\', \'Morocco\', \'Mozambique\', \'Myanmar\', \'Namibia\', \'Nauru\', \'Nepal\', \'Netherlands\', \'New Zealand\', \'Nicaragua\', \'Niger\', \'Nigeria\', \'Norway\', \'Oman\', \'Pakistan\', \'Palau\', \'Palestine\', \'Panama\', \'Papua New Guinea\', \'Paraguay\', \'Peru\', \'Philippines\', \'Poland\', \'Portugal\', \'Puerto Rico\', \'Qatar\', \'Romania\', \'Russia\', \'Rwanda\', \'Saint Kitts and Nevis\', \'Saint Lucia\', \'Saint Vincent and the Grenadines\', \'Samoa\', \'San Marino\', \'Sao Tome and Principe\', \'Saudi Arabia\', \'Senegal\', \'Serbia and Montenegro\', \'Seychelles\', \'Sierra Leone\', \'Singapore\', \'Slovakia\', \'Slovenia\', \'Solomon Islands\', \'Somalia\', \'South Africa\', \'Spain\', \'Sri Lanka\', \'Sudan\', \'Suriname\', \'Swaziland\', \'Sweden\', \'Switzerland\', \'Syria\', \'Taiwan\', \'Tajikistan\', \'Tanzania\', \'Thailand\', \'Togo\', \'Tonga\', \'Trinidad and Tobago\', \'Tunisia\', \'Turkey\', \'Turkmenistan\', \'Tuvalu\', \'Uganda\', \'Ukraine\', \'United Arab Emirates\', \'Uruguay\', \'Uzbekistan\', \'Vanuatu\', \'Vatican City\', \'Venezuela\', \'Vietnam\', \'Yemen\', \'Zambia\', \'Zimbabwe\', \'Other\')\nyears = []\nmonths = [ \'01\', \'02\', \'03\', \'04\', \'05\', \'06\', \'07\', \'08\', \'09\', \'10\', \'11\', \'12\' ]\n\nfor i in xrange(100):\n    if i < 10:\n        number = \'0\' + str(i)\n    else:\n        number = str(i)\n\n    years.append(number)\n\n\n\n@auth.requires_login(otherwise=URL(\'default\',\'login\'))\ndef profile():\n\n    user = (db(db.auth_user.id == auth._get_user_id()).select()).first()\n\n    number_of_projects = len(db(db.project.username == auth._get_user_id()).select())\n    number_of_pledges = len(db(db.pledges.username == auth._get_user_id()).select())\n\n\n    return dict(user=user, number_of_projects=number_of_projects, number_of_pledges=number_of_pledges )\n\n@auth.requires_login(otherwise=URL(\'default\',\'login\'))\ndef projects():\n\n    user = (db(db.auth_user.id == auth._get_user_id()).select()).first()\n\n    open_for_pledges_projects = db((db.project.username == auth._get_user_id()) & (db.project.status  == "Open for Pledges")).select()\n    not_available_projects = db((db.project.username == auth._get_user_id()) & (db.project.status  == "Not Available")).select()\n    funded_projects = db((db.project.username == auth._get_user_id()) & (db.project.status  == "Funded")).select()\n    not_funded_projects = db((db.project.username == auth._get_user_id()) & (db.project.status  == "Not Funded")).select()\n\n\n    \n    return dict(user=user, open_for_pledges_projects = open_for_pledges_projects, not_available_projects = not_available_projects,\n                funded_projects = funded_projects, not_funded_projects = not_funded_projects)\n\n@auth.requires_login(otherwise=URL(\'default\',\'login\'))\ndef pledges():\n\n    user = (db(db.auth_user.id == auth._get_user_id()).select()).first()\n    pledges_made_by_user = db((db.pledges.username == user.id) & (db.pledge_levels.project_id == db.project.id) & (db.pledge_levels.id == db.pledges.pledge_levels_id)).select()\n\n    return dict(user = user, pledges_made_by_user = pledges_made_by_user)\n\n@auth.requires_login(otherwise=URL(\'default\',\'login\'))\ndef information():\n\n    user = (db(db.auth_user.id == auth._get_user_id()).select()).first()\n    bank_details = db(db.bank_details.id == user.bank_details_id).select().first()\n    address = db(db.address.id == user.address_id).select().first()\n    bank_address = db(db.address.id == bank_details.address_id).select().first()\n\n    return dict(user=user,  bank_details = bank_details, address=address, bank_address=bank_address)\n\n\n@auth.requires_login(otherwise=URL(\'default\',\'login\'))\ndef create():\n\n\n\n    options = [\'Arts\', \'Comics\', \'Crafts\', \'Fashion\', \'Film\', \'Games\', \'Music\', \'Photography\', \'Technology\']\n\n\n    form= FORM(FIELDSET(\n\n                        DIV(LABEL(\'Project Title:\', _for=\'project_title\'),\n                            INPUT(_id=\'project_title\', _name=\'project_title\', _type=\'text\', _class=\'span6\',_style="display: block;",requires=IS_NOT_EMPTY(error_message=T("Field cannot be left empty"))),\n\n                            LABEL(\'Short Project Description:\', _for=\'short_project_description\'),\n                            TEXTAREA(_id=\'short_project_description\', _name=\'short_project_description\', _rows = \'2\', _maxlength = "120", _class=\'span6\',_style="display: block;",requires=[IS_NOT_EMPTY(error_message=T("Field cannot be left empty")), IS_LENGTH(120, error_message=T("Must be at most 120 characters"))]),\n\n                            LABEL(\'Category:\', _for=\'category\'),\n                            SELECT(*options, _name=\'category\', _id=\'category\',_class=\'span6\',_style="display: block;" ,requires= [IS_IN_SET(options, error_message=T("Category from list must be chosen"))]),\n\n                            LABEL(\'Project Image:\', _for=\'image\'),\n                            INPUT(_id=\'image\', _name=\'image\', _type=\'file\', _class=\'span6\',_style="display: block;",requires=IS_NOT_EMPTY(error_message=T("Field cannot be left empty")))\n\n                            ,_class=\'controls control-group\'),\n\n\n                            DIV(LABEL(\'Funding Goal (in GBPs):\', _for=\'funding_goal\'),\n                            INPUT(_id=\'funding_goal\', _name=\'funding_goal\', _type=\'text\', _class=\'span6\',_style="display: block;",requires=[IS_NOT_EMPTY(error_message=T("Field cannot be left empty")), IS_INT_IN_RANGE(0, 1000000000, error_message=T("Must be a whole number between \xc2\xa30 and \xc2\xa31000000000"))]),\n\n                            LABEL(\'Long Description of Project Goals:\', _for=\'long_description\'),\n                            TEXTAREA(_id=\'long_description\', _name=\'long_description\', _rows = \'20\', _class=\'span9\',_style="display: block;",requires=IS_NOT_EMPTY(error_message=T("Field cannot be left empty"))),\n\n                            LABEL(\'Project Story:\', _for=\'project_story\'),\n                            TEXTAREA(_id=\'project_story\', _name=\'project_story\',_cols = \'50\', _rows = \'20\', _class=\'span9\',_style="display: block;",requires=IS_NOT_EMPTY(error_message=T("Field cannot be left empty")))\n\n                            ,_class=\'controls control-group\'),\n\n\n\n                         INPUT(_type=\'submit\', _class=\'btn btn-primary btn-large\', _value="I\'m ready to start adding pledges")\n\n\n    ))\n\n    if form.process().accepted:\n        session.create_step_one = request.vars.project_title\n        # project = db.project.insert(username = auth._get_user_id, short_description = request.vars.short_project_description,\n        #                             status=\'Not Available\', image = request.vars.image, category = request.vars.category,\n        #                             funding_raised = 0, story = request.vars.project_story, opened_for_pledges_date = request.now,\n        #                             funding_target = int(request.vars.funding_goal), title = request.vars.project_title,\n        #                             long_description = request.vars.long_description)\n\n\n        redirect(URL(\'profile\',\'create_step2\'))\n\n\n\n    user = (db(db.auth_user.id == auth._get_user_id()).select()).first()\n\n\n    return dict(user=user, form=form)\n\n@auth.requires_login(otherwise=URL(\'default\',\'login\'))\ndef create_step2():\n\n\n    pledge_levels = []\n    project_id = request.args(0)\n    user = (db(db.auth_user.id == auth._get_user_id()).select()).first()\n\n    if session.create_step_one:\n        request.vars.update(session.create_step_one)\n\n    response.flash = request.vars\n\n    form = FORM(DIV(INPUT(_id=\'pledge_amount\', _name=\'pledge_amount\', _type=\'text\', _placeholder = "\xc2\xa3", _class=\'span2\',requires=[IS_NOT_EMPTY(error_message=T("Field cannot be left empty")), IS_INT_IN_RANGE(0, 1000000000, error_message=T("Must be a whole number between \xc2\xa30 and \xc2\xa31000000000"))]),\n            TEXTAREA(_placeholder = \'Reward\', _id=\'pledge_reward\', _name=\'pledge_reward\',_cols = \'50\', _rows = \'5\', _class=\'span5\', requires=IS_NOT_EMPTY(error_message=T("Field cannot be left empty"))),\n           _class="controls control-group" ), INPUT(_type=\'submit\', _class=\'btn btn-primary btn-large\', _value=\'Add Reward\'))\n\n    create_project_form = FORM(DIV(INPUT(_type=\'submit\', _class=\'btn btn-primary btn-large\', _value=\'Create Project\')))\n\n    if form.process(formname=\'form_one\').accepted:\n        pledge_levels.append([request.vars.pledge_amount, request.vars.pledge_reward])\n\n    if create_project_form.process(formname=\'form_two\').accepted:\n        #db.pledge_levels.insert(project_id = project.id, pledge_amount = int(request.vars.pledge_amount), reward = request.vars.pledge_reward)\n        pass\n\n\n\n    return dict(pledge_levels = pledge_levels, form = form, user = user)\n\n@auth.requires_login(otherwise=URL(\'default\',\'login\'))\ndef change_password():\n    form = FORM(FIELDSET(\n                        LEGEND(\'Change Password\'),\n                        DIV(\n                            LABEL(\'New Password:\', _for=\'new_password\'),INPUT(_id=\'new_password\', _name=\'new_password\', _type=\'password\', _class=\'span4\',requires=IS_NOT_EMPTY(error_message=T("Field cannot be left empty"))),\n                            LABEL(\'Confirm New Password:\', _for=\'confirm_new_password\'),INPUT(_id=\'confirm_new_password\', _name=\'confirm_new_password\', _type=\'password\', _class=\'span4\'\n                            , requires=[IS_EQUAL_TO(request.vars.confirm_new_password, error_message=T("Passwords do not match")), IS_NOT_EMPTY(error_message=T("Field cannot be left empty"))]),\n                            _class=\'controls control-group\'),\n\n                        INPUT(_type=\'submit\', _class=\'btn btn-primary\', _value=\'Change Password\')\n    ))\n\n    if form.process().accepted:\n\n        user = db(db.auth_user.id == auth._get_user_id()).select().first()\n        user.update_record(password = db.auth_user.password.validate(form.vars.new_password)[0])\n\n        response.flash = DIV(\'Password has been successfully changed\', _class="alert alert-success")\n\n    elif form.errors:\n         response.flash = DIV(\'Form not filled out successfully\', _class="alert alert-error")\n\n    user = (db(db.auth_user.id == auth._get_user_id()).select()).first()\n\n\n    return dict(form = form, user = user)\n\n@auth.requires_login(otherwise=URL(\'default\',\'login\'))\ndef edit_information():\n\n    user = (db(db.auth_user.id == auth._get_user_id()).select()).first()\n    bank_details = db(db.bank_details.id == user.bank_details_id).select().first()\n    address = db(db.address.id == user.address_id).select().first()\n    bank_address = db(db.address.id == bank_details.address_id).select().first()\n\n    form= FORM(FIELDSET(\n\n                        LEGEND(\'Personal Information\'),\n                        DIV(LABEL(\'First Name:\', _for=\'first_name\'),INPUT(_id=\'first_name\', _name=\'first_name\', _type=\'text\', _class=\'span4\',_style="display: block;"),\n                            LABEL(\'Last Name:\', _for=\'last_name\'),INPUT(_id=\'last_name\', _name=\'last_name\', _type=\'text\', _class=\'span4\',_style="display: block;")\n                            ,_class=\'controls control-group\'),\n\n\n                        DIV( LABEL(\'Date of Birth:\'),\n                             INPUT( _name=\'dob\', _type=\'text\',_placeholder = (\'dd/mm/yyyy\'),_maxlength=\'10\', _class=\'date\',_style="display: block;")\n                             ,_class="controls controls-row"),\n\n                        LEGEND(\'Home Address\'),\n                        DIV(LABEL(\'Street:\', _for=\'street\'),INPUT(_id=\'street\', _name=\'street\', _type=\'text\', _class=\'span4\',_style="display: block;"),\n                            LABEL(\'City:\', _for=\'city\'),INPUT(_id=\'city\', _name=\'city\', _type=\'text\', _class=\'span4\',_style="display: block;"),\n                            LABEL(\'Postcode:\', _for=\'postcode\'),INPUT(_id=\'postcode\', _name=\'postcode\', _type=\'text\', _class=\'span4\',_style="display: block;"),\n                            LABEL(\'Country:\', _for=\'country\'),SELECT(*COUNTRIES, _id=\'country\', _name=\'country\',_style="display: block;")\n                            ,_class=\'controls control-group\'),\n\n                        LEGEND(\'Billing Information\'),\n                        DIV(LABEL(\'Card Number:\', _for=\'card_number\'),INPUT(_id=\'card_number\', _name=\'card_number\', _type=\'text\',_maxlength=\'12\' ,_class=\'span4\',_style="display: block;"),\n                            LABEL(\'Security Code:\', _for=\'security_code\'),INPUT(_id=\'security_code\', _name=\'security_code\', _type=\'text\',_maxlength=\'3\', _class=\'span4\',_style="display: block;")\n                            ,_class=\'controls control-group\'),\n\n                        DIV(\n                            LABEL(\'Expiry Date:\'),\n                            SELECT(*months, _value=\'mm\', _name=\'expiry_date_month\', _id=\'expiry_date_month\' ),\n                            SPAN(\' / \'),\n                            SELECT(*years, _value=\'yy\', _name=\'expiry_date_year\', _id=\'expiry_date_year\')\n                            , _class=\'controls controls-row\'),\n\n                        LEGEND(\'Billing Address\'),\n                        DIV(LABEL(INPUT(_id=\'billing_checkbox\', _name=\'billing_checkbox\', _value=\'yes\', _onclick=\'javascript:toggleAddressAvailibility();\', _type=\'checkbox\' ), \'Same as Home Address\',_class=\'checkbox\'),\n                            DIV(LABEL(\'Street:\', _for=\'billing_street\'),INPUT( _name=\'billing_street\', _type=\'text\', _class=\'span4\',_style="display: block;"), _id=\'billing_street\'),\n                            DIV(LABEL(\'City:\', _for=\'billing_city\'),INPUT( _name=\'billing_city\', _type=\'text\', _class=\'span4\',_style="display: block;"), _id=\'billing_city\'),\n                            DIV(LABEL(\'Postcode:\', _for=\'billing_postcode\'),INPUT( _name=\'billing_postcode\', _type=\'text\', _style="display: block;", _class=\'span4\'), _id=\'billing_postcode\'),\n                            DIV(LABEL(\'Country:\', _for=\'billing_country\'),SELECT(*COUNTRIES, _name=\'billing_country\'), _id=\'billing_country\')\n                            ,_class=\'controls control-group last_form_section\'),\n\n                         INPUT(_type=\'submit\', _class=\'btn btn-primary btn-large\', _value=\'Confirm Changes\')\n\n\n    ))\n\n    form.vars.first_name = user.first_name\n    form.vars.last_name = user.last_name\n    form.vars.dob = generate_correct_date_format(user.birthdate)\n    form.vars.street = address.street\n    form.vars.city = address.city\n    form.vars.country = address.country\n    form.vars.postcode = address.postcode\n    form.vars.card_number = bank_details.card_number\n    form.vars.security_code = bank_details.security_code\n\n    expiry_date = bank_details.expiry_date.partition("/")\n\n    form.vars.expiry_date_month = expiry_date[0]\n    form.vars.expiry_date_year = expiry_date[2]\n    form.vars.billing_street = bank_address.street\n    form.vars.billing_city = bank_address.city\n    form.vars.billing_country = bank_address.country\n    form.vars.billing_postcode = bank_address.postcode\n\n\n    if form.process(onvalidation=edit_information_validation).accepted:\n\n        new_home_address_was_added = False\n\n        ##UPDATE Personal Info\n        if request.vars.first_name != user.first_name:\n            user.update_record(first_name = request.vars.first_name)\n\n        if request.vars.last_name != user.last_name:\n            user.update_record(last_name = request.vars.last_name)\n\n        if request.vars.dob != user.birthdate:\n            date_of_birth = request.vars.dob.split(\'/\')\n            user.update_record(birthdate= datetime.date(int(date_of_birth[2]), int(date_of_birth[1]), int(date_of_birth[0])))\n\n        ## UPDATE address\n\n        if (user.address_id == bank_details.address_id):\n            number_of_banks_with_same_address_limit = 1\n        else:\n            number_of_banks_with_same_address_limit = 0\n\n        number_of_users_using_the_same_address = len(db(db.auth_user.address_id == user.address_id).select())\n        number_of_bank_details_using_the_same_address = len(db(db.bank_details.address_id == user.address_id).select())\n\n        if (number_of_users_using_the_same_address > 1) or (number_of_bank_details_using_the_same_address >  number_of_banks_with_same_address_limit):\n\n            if request.vars.street != address.street or request.vars.city != address.city or request.vars.country != address.country or request.vars.postcode != address.postcode:\n                new_address_id = db.address.insert(street = request.vars.street, city = request.vars.city, country = request.vars.country, postcode = request.vars.postcode)\n                user.update_record(address_id = new_address_id)\n                new_home_address_was_added = True\n\n\n\n        else:\n\n            if request.vars.street != address.street:\n                address.update_record(street = request.vars.street)\n\n            if request.vars.city != address.city:\n                address.update_record(city = request.vars.city)\n\n            if request.vars.country != address.country:\n                address.update_record(country = request.vars.country)\n\n            if request.vars.postcode != address.postcode:\n                address.update_record(postcode = request.vars.postcode)\n\n\n        ## UPDATE BANK DETAILS\n        number_of_users_using_the_same_card = len(db(db.auth_user.bank_details_id == user.bank_details_id).select())\n\n        expiry_date = request.vars.expiry_date_month + "/" + request.vars.expiry_date_year\n\n        if number_of_users_using_the_same_card > 1:\n\n            if request.vars.card_number != bank_details.card_number or request.vars.security_code != bank_details.security_code or expiry_date != bank_details.expiry_date:\n                new_bank_details_id = db.bank_details.insert(card_number = request.vars.card_number, security_code = request.vars.security_code,\n                                    expiry_date = expiry_date)\n                user.update_record(bank_details_id = new_bank_details_id)\n\n\n\n        else:\n\n            if request.vars.card_number != bank_details.card_number:\n                bank_details.update_record(card_number= request.vars.card_number)\n\n            if request.vars.security_code != bank_details.security_code:\n                bank_details.update_record(security_code = request.vars.security_code)\n\n            if expiry_date != bank_details.expiry_date:\n                bank_details.update_record(expiry_date = expiry_date)\n\n\n        ## UPDATE BANK_ADDRESS\n\n        if request.vars.billing_checkbox ==\'yes\':\n\n            if new_home_address_was_added:\n                bank_details.update_record(address_id = new_address_id)\n\n            else:\n                bank_details.update_record(address_id = address.id)\n\n        else:\n\n            if (request.vars.street == request.vars.billing_street) and (request.vars.city == request.vars.billing_city) and \\\n            (request.vars.country == request.vars.billing_country) and (request.vars.postcode == request.vars.billing_postcode):\n\n                if new_home_address_was_added:\n                    bank_details.update_record(address_id = new_address_id)\n\n                else:\n                    bank_details.update_record(address_id = address.id)\n\n            else:\n\n                if (user.address_id == bank_details.address_id):\n                    number_of_users_with_same_address_limit = 1\n                else:\n                    number_of_users_with_same_address_limit = 0\n\n                number_of_users_using_the_same_address = len(db(db.auth_user.address_id == bank_address.id).select())\n                number_of_bank_details_using_the_same_address = len(db(db.bank_details.address_id == bank_address.id).select())\n\n                if (number_of_users_using_the_same_address > number_of_users_with_same_address_limit) or (number_of_bank_details_using_the_same_address > 1):\n                     if request.vars.billing_street != bank_address.street or request.vars.billing_city != bank_address.city or\\\n                        request.vars.billing_country != bank_address.country or request.vars.billing_postcode != bank_address.postcode:\n\n                        new_bank_address_id = db.address.insert(street = request.vars.billing_street, city = request.vars.billing_city,\n                                             country = request.vars.billing_country, postcode = request.vars.billing_postcode)\n\n                        bank_details.update_record(address_id = new_bank_address_id)\n\n                else:\n\n                    if request.vars.billing_street != bank_address.street:\n                        address.update_record(street = request.vars.billing_street)\n\n                    if request.vars.billing_city != bank_address.city:\n                        address.update_record(city = request.vars.billing_city)\n\n                    if request.vars.billing_country != bank_address.country:\n                        address.update_record(country = request.vars.billing_country)\n\n                    if request.vars.billing_postcode != bank_address.postcode:\n                        address.update_record(postcode = request.vars.billing_postcode)\n\n\n\n\n\n\n        redirect(URL(\'information\'))\n\n        #if (request.vars.expiry_date_month != expiry_date[0]) or (request.vars.expiry_date_year != expiry_date[2]):\n\n\n\n\n\n\n    return dict(user = user, form = form)\n\ndef generate_correct_date_format(date):\n    date_string = ""\n    if date.day < 10:\n        date_string += "0" + str(date.day) + "/"\n    else:\n        date_string += str(date.day) + "/"\n\n    if date.month < 10:\n        date_string += "0" + str(date.month) + "/"\n    else:\n        date_string += str(date.month) + "/"\n\n    date_string += str(date.year)\n\n    return date_string\n\n\ndef edit_information_validation(form):\n\n\n    if form.vars.first_name == "":\n        form.errors.first_name = "First name must be entered"\n\n    if form.vars.last_name == "":\n        form.errors.last_name = "Last name must be entered"\n\n    date_validator = IS_DATE(format=\'%d/%m/%Y\', error_message=T("Wrong format"))\n    if date_validator(form.vars.dob)[1] is not None:\n        form.errors.dob = "Date should be given as dd/mm/yyyy"\n\n    if form.vars.street == "":\n        form.errors.street = "Street must be entered"\n\n    if form.vars.city == "":\n        form.errors.city = "City must be entered"\n\n    if form.vars.country == "":\n        form.errors.country = "Country must be entered"\n\n    postcode_validator =  IS_MATCH(\'^[A-Z0-9]{4} [A-Z0-9]{3}$\', error_message="Postcode is not valid" )\n    if postcode_validator(form.vars.postcode)[1] is not None:\n         form.errors.postcode = postcode_validator(form.vars.postcode)[1]\n\n    security_code_validator = IS_MATCH(\'^[0-9]{3}$\', error_message=\'Security code must contain 3 numbers\')\n    if security_code_validator(form.vars.security_code)[1] is not None:\n        form.errors.security_code = security_code_validator(form.vars.security_code)[1]\n\n\n    card_number_validator = IS_MATCH(\'^[0-9]{12,12}$\', error_message="Card number must be 12 digits long" )\n    if card_number_validator(form.vars.card_number)[1] is not None:\n        form.errors.card_number = card_number_validator(form.vars.card_number)[1]\n\n    if form.vars.billing_checkbox != "yes":\n        if form.vars.billing_street =="":\n            form.errors.billing_street = "Street must be entered"\n\n        if form.vars.billing_city =="":\n            form.errors.billing_city = "City must be entered"\n\n        if form.vars.billing_country =="":\n            form.errors.billing_country = "Country must be entered"\n\n        if form.vars.billing_postcode =="":\n            form.errors.billing_postcode = "Postcode must be entered"\n\n    if form.vars.expiry_date_month not in months or form.vars.expiry_date_year not in years:\n        form.errors.expiry_date_year = "Expiry Date must be entered"\n\n\n\n\n\n@auth.requires_login(otherwise=URL(\'default\',\'login\'))\ndef view_project():\n\n    project = None\n    project_id = request.args(0)\n    user = (db(db.auth_user.id == auth._get_user_id()).select()).first()\n    projects = db((db.project.username == auth._get_user_id) & (db.project.id == project_id) ).select()\n\n    if len(projects) < 1:\n        redirect(URL(\'profile\', \'profile\'))\n\n    else:\n        project = projects.first()\n\n        if project.status != "Not Available":\n             redirect(URL(\'profile\', \'profile\'))\n\n\n    return dict(project = project, user = user)\n\ndef delete_pledge():\n    db(db.pledge_levels.id == request.vars.id).delete()\n    redirect(URL(\'rewards\', args=request.vars.project_id), client_side=True)\n\n@auth.requires_login(otherwise=URL(\'default\',\'login\'))\ndef rewards():\n\n    form=None\n    project = None\n    pledge_levels = None\n    project_id = request.args(0)\n    user = (db(db.auth_user.id == auth._get_user_id()).select()).first()\n    projects = db((db.project.username == auth._get_user_id) & (db.project.id == project_id) ).select()\n\n    if len(projects) < 1:\n        redirect(URL(\'profile\', \'profile\'))\n\n    else:\n        project = projects.first()\n\n        if project.status != "Not Available":\n             redirect(URL(\'profile\', \'profile\'))\n\n\n        form = FORM(DIV(INPUT(_id=\'pledge_amount\', _name=\'pledge_amount\', _type=\'text\', _placeholder = "\xc2\xa3", _class=\'span2\',requires=[IS_NOT_EMPTY(error_message=T("Field cannot be left empty")), IS_INT_IN_RANGE(0, 1000000000, error_message=T("Must be a whole number between \xc2\xa30 and \xc2\xa31000000000"))]),\n                TEXTAREA(_placeholder = \'Reward\', _id=\'pledge_reward\', _name=\'pledge_reward\',_cols = \'50\', _rows = \'5\', _class=\'span5\', requires=IS_NOT_EMPTY(error_message=T("Field cannot be left empty"))),\n               _class="controls control-group" ), INPUT(_type=\'submit\', _class=\'btn btn-primary btn-large\', _value=\'Add Reward\'))\n\n        if form.process().accepted:\n            db.pledge_levels.insert(project_id = project.id, pledge_amount = int(request.vars.pledge_amount), reward = request.vars.pledge_reward)\n\n\n        pledge_levels = db(db.pledge_levels.project_id == project_id).select(orderby=db.pledge_levels.pledge_amount)\n\n    return dict(pledge_levels = pledge_levels, form = form, user = user, project=project)\n\n@auth.requires_login(otherwise=URL(\'default\',\'login\'))\ndef change_picture():\n\n    form=None\n    project = None\n    project_id = request.args(0)\n    user = (db(db.auth_user.id == auth._get_user_id()).select()).first()\n    projects = db((db.project.username == auth._get_user_id) & (db.project.id == project_id) ).select()\n\n    if len(projects) < 1:\n        redirect(URL(\'profile\', \'profile\'))\n\n    else:\n        project = projects.first()\n\n        if project.status != "Not Available":\n             redirect(URL(\'profile\', \'profile\'))\n\n\n        form = FORM(LABEL(\'New Image:\', _for=\'image\'),\n                INPUT(_id=\'image\', _name=\'image\', _type=\'file\', _class=\'span4\',requires=IS_NOT_EMPTY(error_message=T("Field cannot be left empty"))),\n                INPUT(_type=\'submit\', _class=\'btn btn-primary btn-large\', _value=\'Change Picture\'))\n\n        if form.process().accepted:\n            project.update_record(image = request.vars.image)\n            redirect(URL(\'profile\',\'view_project\', args=project.id))\n\n\n    return dict(form = form, user = user, project=project)\n\n@auth.requires_login(otherwise=URL(\'default\',\'login\'))\ndef edit_project():\n\n\n\n    form=None\n    project = None\n    project_id = request.args(0)\n    user = (db(db.auth_user.id == auth._get_user_id()).select()).first()\n    projects = db((db.project.username == auth._get_user_id) & (db.project.id == project_id) ).select()\n\n    if len(projects) < 1:\n        redirect(URL(\'profile\', \'profile\'))\n\n    else:\n        project = projects.first()\n\n        if project.status != "Not Available":\n             redirect(URL(\'profile\', \'profile\'))\n\n\n        form= FORM(FIELDSET(\n\n                        DIV(LABEL(\'Project Title:\', _for=\'project_title\'),\n                            INPUT(_id=\'project_title\', _name=\'project_title\', _type=\'text\', _class=\'span6\',requires=IS_NOT_EMPTY(error_message=T("Field cannot be left empty"))),\n\n                            LABEL(\'Short Project Description:\', _for=\'short_project_description\'),\n                            TEXTAREA(_id=\'short_project_description\', _name=\'short_project_description\', _cols = \'50\', _rows = \'5\', _class=\'span6\',requires=[IS_NOT_EMPTY(error_message=T("Field cannot be left empty")), IS_LENGTH(120, error_message=T("Must be at most 120 characters"))]),\n\n                            LABEL(\'Category:\', _for=\'category\'),\n                            SELECT(*options, _name=\'category\', _id=\'category\', _class="span6", requires= [IS_IN_SET(options, error_message=T("Category from list must be chosen"))])\n\n\n                            ,_class=\'controls control-group\'),\n\n\n                            DIV(LABEL(\'Funding Goal (in GBPs):\', _for=\'funding_goal\'),\n                            INPUT(_id=\'funding_goal\', _name=\'funding_goal\', _type=\'text\', _class=\'span6\',requires=[IS_NOT_EMPTY(error_message=T("Field cannot be left empty")), IS_INT_IN_RANGE(0, 1000000000, error_message=T("Must be a whole number between \xc2\xa30 and \xc2\xa31000000000"))]),\n\n                            LABEL(\'Long Description of Project Goals:\', _for=\'long_description\'),\n                            TEXTAREA(_id=\'long_description\', _name=\'long_description\',_cols = \'50\', _rows = \'10\', _class=\'span6\',requires=IS_NOT_EMPTY(error_message=T("Field cannot be left empty"))),\n\n                            LABEL(\'Project Story:\', _for=\'project_story\'),\n                            TEXTAREA(_id=\'project_story\', _name=\'project_story\',_cols = \'50\', _rows = \'10\', _class=\'span6\',requires=IS_NOT_EMPTY(error_message=T("Field cannot be left empty")))\n\n                            ,_class=\'controls control-group\'),\n\n\n                         INPUT(_type=\'submit\', _class=\'btn btn-primary btn-large\', _value=\'Confirm Changes\')\n\n         ))\n\n        form.vars.project_title = project.title\n        form.vars.short_project_description = project.short_description\n        form.vars.category = project.category\n        form.vars.funding_goal = project.funding_target\n        form.vars.long_description = project.long_description\n        form.vars.project_story = project.story\n\n        if form.process().accepted:\n\n            if request.vars.project_title != project.title:\n                project.update_record(title = request.vars.project_title)\n\n            if request.vars.short_project_description != project.short_description:\n                project.update_record(short_description = request.vars.short_project_description)\n\n            if request.vars.category!= project.category:\n                project.update_record(category = request.vars.category)\n\n            if request.vars.funding_goal != project.funding_target:\n                project.update_record(funding_target = int(request.vars.funding_goal))\n\n            if request.vars.long_description != project.long_description:\n                project.update_record(long_description = request.vars.long_description)\n\n            if request.vars.project_story != project.story:\n                project.update_record(story= request.vars.project_story)\n\n            redirect(URL(\'profile\',\'view_project\', args=project.id))\n\n\n\n    return dict(form = form, user = user, project=project)\n\ndef delete_project():\n    db(db.project.id == request.vars.project_id).delete()\n    redirect(URL(\'profile\',\'projects\', args=request.vars.project_id), client_side=True)\n\n\n\n@auth.requires_login(otherwise=URL(\'default\',\'login\'))\ndef confirm_open_for_pledges():\n\n    form=None\n    project = None\n    project_id = request.args(0)\n    user = (db(db.auth_user.id == auth._get_user_id()).select()).first()\n    projects = db((db.project.username == auth._get_user_id) & (db.project.id == project_id) ).select()\n\n\n    if len(projects) < 1:\n        redirect(URL(\'profile\', \'profile\'))\n\n    else:\n        project = projects.first()\n\n        if (project.status != "Not Available") and (project.status != "Not Funded"):\n             redirect(URL(\'profile\', \'projects\'))\n\n        form= FORM(INPUT(_type=\'submit\', _class=\'btn btn-primary btn-large\', _value=\'Yes, open project for pledges\'))\n\n        if form.process().accepted:\n             project.update_record(status = "Open for Pledges", open_for_pledges_date = request.now)\n             redirect(URL(\'profile\', \'projects\', args=request.vars.project_id))\n\n    return dict(form = form, user = user, project=project)\n\n@auth.requires_login(otherwise=URL(\'default\',\'login\'))\ndef close_from_pledges():\n\n    form=None\n    project = None\n    project_id = request.args(0)\n    user = (db(db.auth_user.id == auth._get_user_id()).select()).first()\n    projects = db((db.project.username == auth._get_user_id) & (db.project.id == project_id) ).select()\n\n    if len(projects) < 1:\n        redirect(URL(\'profile\', \'profile\'))\n\n    else:\n        project = projects.first()\n\n        if project.status != "Open for Pledges":\n             redirect(URL(\'profile\', \'projects\'))\n\n        form= FORM(INPUT(_type=\'submit\', _class=\'btn btn-primary btn-large\', _value=\'Yes, close project from pledges\'))\n\n        if form.process().accepted:\n             if project.funding_target > project.funding_raised:\n                 project.update_record(status = "Not Funded")\n             else:\n                 project.update_record(status = "Funded")\n\n             redirect(URL(\'profile\', \'projects\', args=request.vars.project_id))\n\n    return dict(form = form, user = user, project = project)\n\n\n\n\n\n\n\n\n\n\n\n\nresponse._vars=response._caller(create_step2)\n'
p7
sS'snapshot'
p8
(dp9
S'exception'
p10
(dp11
S'__hash__'
p12
S"<method-wrapper '__hash__' of exceptions.ValueError object>"
p13
sS'__setattr__'
p14
S"<method-wrapper '__setattr__' of exceptions.ValueError object>"
p15
sS'__reduce_ex__'
p16
S'<built-in method __reduce_ex__ of exceptions.ValueError object>'
p17
sS'__getslice__'
p18
S"<method-wrapper '__getslice__' of exceptions.ValueError object>"
p19
sS'__getitem__'
p20
S"<method-wrapper '__getitem__' of exceptions.ValueError object>"
p21
sS'__setstate__'
p22
S'<built-in method __setstate__ of exceptions.ValueError object>'
p23
sS'args'
p24
S"('dictionary update sequence element #0 has length 1; 2 is required',)"
p25
sS'__reduce__'
p26
S'<built-in method __reduce__ of exceptions.ValueError object>'
p27
sS'__str__'
p28
S"<method-wrapper '__str__' of exceptions.ValueError object>"
p29
sS'__format__'
p30
S'<built-in method __format__ of exceptions.ValueError object>'
p31
sS'__getattribute__'
p32
S"<method-wrapper '__getattribute__' of exceptions.ValueError object>"
p33
sS'__class__'
p34
S"<type 'exceptions.ValueError'>"
p35
sS'__unicode__'
p36
S'<built-in method __unicode__ of exceptions.ValueError object>'
p37
sS'__delattr__'
p38
S"<method-wrapper '__delattr__' of exceptions.ValueError object>"
p39
sS'__subclasshook__'
p40
S'<built-in method __subclasshook__ of type object>'
p41
sS'__repr__'
p42
S"<method-wrapper '__repr__' of exceptions.ValueError object>"
p43
sS'__dict__'
p44
S'{}'
p45
sS'__sizeof__'
p46
S'<built-in method __sizeof__ of exceptions.ValueError object>'
p47
sS'__doc__'
p48
S"'Inappropriate argument value (of correct type).'"
p49
sS'__init__'
p50
S"<method-wrapper '__init__' of exceptions.ValueError object>"
p51
sS'__new__'
p52
S'<built-in method __new__ of type object>'
p53
ssS'evalue'
p54
S'dictionary update sequence element #0 has length 1; 2 is required'
p55
sS'request'
p56
cgluon.html
XML_unpickle
p57
(S'sf]\x00\x00<div><table><tr><td style="font-weight:bold;vertical-align:top;">ajax</td><td style="vertical-align:top;">:</td><td><div>False</div></td></tr><tr><td style="font-weight:bold;vertical-align:top;">application</td><td style="vertical-align:top;">:</td><td><div>BootUp</div></td></tr><tr><td style="font-weight:bold;vertical-align:top;">args</td><td style="vertical-align:top;">:</td><td><div><table></table></div></td></tr><tr><td style="font-weight:bold;vertical-align:top;">cid</td><td style="vertical-align:top;">:</td><td><div>None</div></td></tr><tr><td style="font-weight:bold;vertical-align:top;">client</td><td style="vertical-align:top;">:</td><td><div>127.0.0.1</div></td></tr><tr><td style="font-weight:bold;vertical-align:top;">controller</td><td style="vertical-align:top;">:</td><td><div>profile</div></td></tr><tr><td style="font-weight:bold;vertical-align:top;">cookies</td><td style="vertical-align:top;">:</td><td><div><table><tr><td style="font-weight:bold;vertical-align:top;">session_id_admin</td><td style="vertical-align:top;">:</td><td><div>127.0.0.1-245885e9-6072-400c-bfae-4d1a642414b5<table><tr><td style="font-weight:bold;vertical-align:top;">comment</td><td style="vertical-align:top;">:</td><td><div></div></td></tr><tr><td style="font-weight:bold;vertical-align:top;">domain</td><td style="vertical-align:top;">:</td><td><div></div></td></tr><tr><td style="font-weight:bold;vertical-align:top;">expires</td><td style="vertical-align:top;">:</td><td><div></div></td></tr><tr><td style="font-weight:bold;vertical-align:top;">httponly</td><td style="vertical-align:top;">:</td><td><div></div></td></tr><tr><td style="font-weight:bold;vertical-align:top;">max-age</td><td style="vertical-align:top;">:</td><td><div></div></td></tr><tr><td style="font-weight:bold;vertical-align:top;">path</td><td style="vertical-align:top;">:</td><td><div></div></td></tr><tr><td style="font-weight:bold;vertical-align:top;">secure</td><td style="vertical-align:top;">:</td><td><div></div></td></tr><tr><td style="font-weight:bold;vertical-align:top;">version</td><td style="vertical-align:top;">:</td><td><div></div></td></tr></table></div></td></tr><tr><td style="font-weight:bold;vertical-align:top;">session_id_bootup</td><td style="vertical-align:top;">:</td><td><div>127.0.0.1-7f1b42e7-cac4-41a1-8dcb-a56ccc235d31<table><tr><td style="font-weight:bold;vertical-align:top;">comment</td><td style="vertical-align:top;">:</td><td><div></div></td></tr><tr><td style="font-weight:bold;vertical-align:top;">domain</td><td style="vertical-align:top;">:</td><td><div></div></td></tr><tr><td style="font-weight:bold;vertical-align:top;">expires</td><td style="vertical-align:top;">:</td><td><div></div></td></tr><tr><td style="font-weight:bold;vertical-align:top;">httponly</td><td style="vertical-align:top;">:</td><td><div></div></td></tr><tr><td style="font-weight:bold;vertical-align:top;">max-age</td><td style="vertical-align:top;">:</td><td><div></div></td></tr><tr><td style="font-weight:bold;vertical-align:top;">path</td><td style="vertical-align:top;">:</td><td><div></div></td></tr><tr><td style="font-weight:bold;vertical-align:top;">secure</td><td style="vertical-align:top;">:</td><td><div></div></td></tr><tr><td style="font-weight:bold;vertical-align:top;">version</td><td style="vertical-align:top;">:</td><td><div></div></td></tr></table></div></td></tr><tr><td style="font-weight:bold;vertical-align:top;">session_id_welcome</td><td style="vertical-align:top;">:</td><td><div>127.0.0.1-de4e1304-9b1c-4f36-9246-e99c5c78718f<table><tr><td style="font-weight:bold;vertical-align:top;">comment</td><td style="vertical-align:top;">:</td><td><div></div></td></tr><tr><td style="font-weight:bold;vertical-align:top;">domain</td><td style="vertical-align:top;">:</td><td><div></div></td></tr><tr><td style="font-weight:bold;vertical-align:top;">expires</td><td style="vertical-align:top;">:</td><td><div></div></td></tr><tr><td style="font-weight:bold;vertical-align:top;">httponly</td><td style="vertical-align:top;">:</td><td><div></div></td></tr><tr><td style="font-weight:bold;vertical-align:top;">max-age</td><td style="vertical-align:top;">:</td><td><div></div></td></tr><tr><td style="font-weight:bold;vertical-align:top;">path</td><td style="vertical-align:top;">:</td><td><div></div></td></tr><tr><td style="font-weight:bold;vertical-align:top;">secure</td><td style="vertical-align:top;">:</td><td><div></div></td></tr><tr><td style="font-weight:bold;vertical-align:top;">version</td><td style="vertical-align:top;">:</td><td><div></div></td></tr></table></div></td></tr></table></div></td></tr><tr><td style="font-weight:bold;vertical-align:top;">env</td><td style="vertical-align:top;">:</td><td><div><table><tr><td style="font-weight:bold;vertical-align:top;">HTTP_ACCEPT</td><td style="vertical-align:top;">:</td><td><div>text/html,application/xhtml+xml,application/xml;q=0.9,image/webp,*/*;q=0.8</div></td></tr><tr><td style="font-weight:bold;vertical-align:top;">HTTP_ACCEPT_ENCODING</td><td style="vertical-align:top;">:</td><td><div>gzip, deflate, sdch</div></td></tr><tr><td style="font-weight:bold;vertical-align:top;">HTTP_ACCEPT_LANGUAGE</td><td style="vertical-align:top;">:</td><td><div>en-GB,en-US;q=0.8,en;q=0.6</div></td></tr><tr><td style="font-weight:bold;vertical-align:top;">HTTP_CACHE_CONTROL</td><td style="vertical-align:top;">:</td><td><div>max-age=0</div></td></tr><tr><td style="font-weight:bold;vertical-align:top;">HTTP_CONNECTION</td><td style="vertical-align:top;">:</td><td><div>keep-alive</div></td></tr><tr><td style="font-weight:bold;vertical-align:top;">HTTP_COOKIE</td><td style="vertical-align:top;">:</td><td><div>session_id_welcome=127.0.0.1-de4e1304-9b1c-4f36-9246-e99c5c78718f; session_id_admin=127.0.0.1-245885e9-6072-400c-bfae-4d1a642414b5; session_id_bootup=127.0.0.1-7f1b42e7-cac4-41a1-8dcb-a56ccc235d31</div></td></tr><tr><td style="font-weight:bold;vertical-align:top;">HTTP_HOST</td><td style="vertical-align:top;">:</td><td><div>127.0.0.1:8000</div></td></tr><tr><td style="font-weight:bold;vertical-align:top;">HTTP_REFERER</td><td style="vertical-align:top;">:</td><td><div>http://127.0.0.1:8000/BootUp/profile/create</div></td></tr><tr><td style="font-weight:bold;vertical-align:top;">HTTP_USER_AGENT</td><td style="vertical-align:top;">:</td><td><div>Mozilla/5.0 (X11; Linux x86_64) AppleWebKit/537.36 (KHTML, like Gecko) Chrome/39.0.2171.71 Safari/537.36</div></td></tr><tr><td style="font-weight:bold;vertical-align:top;">PATH_INFO</td><td style="vertical-align:top;">:</td><td><div>/BootUp/profile/create_step2</div></td></tr><tr><td style="font-weight:bold;vertical-align:top;">QUERY_STRING</td><td style="vertical-align:top;">:</td><td><div></div></td></tr><tr><td style="font-weight:bold;vertical-align:top;">REMOTE_ADDR</td><td style="vertical-align:top;">:</td><td><div>127.0.0.1</div></td></tr><tr><td style="font-weight:bold;vertical-align:top;">REMOTE_PORT</td><td style="vertical-align:top;">:</td><td><div>48077</div></td></tr><tr><td style="font-weight:bold;vertical-align:top;">REQUEST_METHOD</td><td style="vertical-align:top;">:</td><td><div>GET</div></td></tr><tr><td style="font-weight:bold;vertical-align:top;">SCRIPT_NAME</td><td style="vertical-align:top;">:</td><td><div></div></td></tr><tr><td style="font-weight:bold;vertical-align:top;">SERVER_NAME</td><td style="vertical-align:top;">:</td><td><div>pc975s</div></td></tr><tr><td style="font-weight:bold;vertical-align:top;">SERVER_PORT</td><td style="vertical-align:top;">:</td><td><div>8000</div></td></tr><tr><td style="font-weight:bold;vertical-align:top;">SERVER_PROTOCOL</td><td style="vertical-align:top;">:</td><td><div>HTTP/1.1</div></td></tr><tr><td style="font-weight:bold;vertical-align:top;">SERVER_SOFTWARE</td><td style="vertical-align:top;">:</td><td><div>Rocket 1.2.6</div></td></tr><tr><td style="font-weight:bold;vertical-align:top;">app_folders</td><td style="vertical-align:top;">:</td><td><div>set([&#x27;/usr/userfs/r/rs1019/iapt/web2py/applications/admin/&#x27;, &#x27;/usr/userfs/r/rs1019/iapt/web2py/applications/welcome/&#x27;, &#x27;/usr/userfs/r/rs1019/iapt/web2py/applications/BootUp/&#x27;])</div></td></tr><tr><td style="font-weight:bold;vertical-align:top;">applications_parent</td><td style="vertical-align:top;">:</td><td><div>/usr/userfs/r/rs1019/iapt/web2py</div></td></tr><tr><td style="font-weight:bold;vertical-align:top;">cmd_args</td><td style="vertical-align:top;">:</td><td><div><table></table></div></td></tr><tr><td style="font-weight:bold;vertical-align:top;">cmd_options</td><td style="vertical-align:top;">:</td><td><div>&lt;Values at 0x7f90a8568440: {&#x27;verbose&#x27;: False, &#x27;ip&#x27;: &#x27;127.0.0.1&#x27;, &#x27;debuglevel&#x27;: 30, &#x27;with_scheduler&#x27;: False, &#x27;ips&#x27;: [&#x27;144.32.179.175&#x27;], &#x27;shutdown_timeout&#x27;: 5, &#x27;taskbar&#x27;: False, &#x27;with_coverage&#x27;: False, &#x27;scheduler_groups&#x27;: None, &#x27;port&#x27;: 8000, &#x27;maxthreads&#x27;: None, &#x27;softcron&#x27;: False, &#x27;server_name&#x27;: &#x27;pc975s&#x27;, &#x27;bpython&#x27;: False, &#x27;nogui&#x27;: False, &#x27;pid_filename&#x27;: &#x27;httpserver.pid&#x27;, &#x27;extcron&#x27;: False, &#x27;runcron&#x27;: False, &#x27;run_system_tests&#x27;: False, &#x27;test&#x27;: None, &#x27;folder&#x27;: &#x27;/usr/userfs/r/rs1019/iapt/web2py&#x27;, &#x27;config&#x27;: &#x27;&#x27;, &#x27;minthreads&#x27;: None, &#x27;shell&#x27;: None, &#x27;run&#x27;: &#x27;&#x27;, &#x27;log_filename&#x27;: &#x27;httpserver.log&#x27;, &#x27;profiler_dir&#x27;: None, &#x27;args&#x27;: [&#x27;&#x27;], &#x27;socket_timeout&#x27;: 5, &#x27;ssl_ca_certificate&#x27;: None, &#x27;scheduler&#x27;: None, &#x27;interfaces&#x27;: None, &#x27;ssl_private_key&#x27;: &#x27;&#x27;, &#x27;gae&#x27;: None, &#x27;password&#x27;: &#x27;&lt;ask&gt;&#x27;, &#x27;request_queue_size&#x27;: 5, &#x27;ssl_certificate&#x27;: &#x27;&#x27;, &#x27;cronjob&#x27;: False, &#x27;numthreads&#x27;: None, &#x27;quiet&#x27;: False, &#x27;import_models&#x27;: False, &#x27;timeout&#x27;: 10, &#x27;plain&#x27;: False, &#x27;nobanner&#x27;: False}&gt;</div></td></tr><tr><td style="font-weight:bold;vertical-align:top;">db_sessions</td><td style="vertical-align:top;">:</td><td><div>set([])</div></td></tr><tr><td style="font-weight:bold;vertical-align:top;">debugging</td><td style="vertical-align:top;">:</td><td><div>False</div></td></tr><tr><td style="font-weight:bold;vertical-align:top;">gluon_parent</td><td style="vertical-align:top;">:</td><td><div>/usr/userfs/r/rs1019/iapt/web2py</div></td></tr><tr><td style="font-weight:bold;vertical-align:top;">http_accept</td><td style="vertical-align:top;">:</td><td><div>text/html,application/xhtml+xml,application/xml;q=0.9,image/webp,*/*;q=0.8</div></td></tr><tr><td style="font-weight:bold;vertical-align:top;">http_accept_encoding</td><td style="vertical-align:top;">:</td><td><div>gzip, deflate, sdch</div></td></tr><tr><td style="font-weight:bold;vertical-align:top;">http_accept_language</td><td style="vertical-align:top;">:</td><td><div>en-GB,en-US;q=0.8,en;q=0.6</div></td></tr><tr><td style="font-weight:bold;vertical-align:top;">http_cache_control</td><td style="vertical-align:top;">:</td><td><div>max-age=0</div></td></tr><tr><td style="font-weight:bold;vertical-align:top;">http_connection</td><td style="vertical-align:top;">:</td><td><div>keep-alive</div></td></tr><tr><td style="font-weight:bold;vertical-align:top;">http_cookie</td><td style="vertical-align:top;">:</td><td><div>session_id_welcome=127.0.0.1-de4e1304-9b1c-4f36-9246-e99c5c78718f; session_id_admin=127.0.0.1-245885e9-6072-400c-bfae-4d1a642414b5; session_id_bootup=127.0.0.1-7f1b42e7-cac4-41a1-8dcb-a56ccc235d31</div></td></tr><tr><td style="font-weight:bold;vertical-align:top;">http_host</td><td style="vertical-align:top;">:</td><td><div>127.0.0.1:8000</div></td></tr><tr><td style="font-weight:bold;vertical-align:top;">http_referer</td><td style="vertical-align:top;">:</td><td><div>http://127.0.0.1:8000/BootUp/profile/create</div></td></tr><tr><td style="font-weight:bold;vertical-align:top;">http_user_agent</td><td style="vertical-align:top;">:</td><td><div>Mozilla/5.0 (X11; Linux x86_64) AppleWebKit/537.36 (KHTML, like Gecko) Chrome/39.0.2171.71 Safari/537.36</div></td></tr><tr><td style="font-weight:bold;vertical-align:top;">is_jython</td><td style="vertical-align:top;">:</td><td><div>False</div></td></tr><tr><td style="font-weight:bold;vertical-align:top;">is_pypy</td><td style="vertical-align:top;">:</td><td><div>False</div></td></tr><tr><td style="font-weight:bold;vertical-align:top;">is_source</td><td style="vertical-align:top;">:</td><td><div>True</div></td></tr><tr><td style="font-weight:bold;vertical-align:top;">local_hosts</td><td style="vertical-align:top;">:</td><td><div><table><tr><td><div>pc975s</div></td></tr><tr><td><div>::ffff:127.0.0.1</div></td></tr><tr><td><div>::1</div></td></tr><tr><td><div>pc975s.cs.york.ac.uk</div></td></tr><tr><td><div>144.32.179.175</div></td></tr><tr><td><div>127.0.0.1</div></td></tr></table></div></td></tr><tr><td style="font-weight:bold;vertical-align:top;">path_info</td><td style="vertical-align:top;">:</td><td><div>/BootUp/profile/create_step2</div></td></tr><tr><td style="font-weight:bold;vertical-align:top;">query_string</td><td style="vertical-align:top;">:</td><td><div></div></td></tr><tr><td style="font-weight:bold;vertical-align:top;">remote_addr</td><td style="vertical-align:top;">:</td><td><div>127.0.0.1</div></td></tr><tr><td style="font-weight:bold;vertical-align:top;">remote_port</td><td style="vertical-align:top;">:</td><td><div>48077</div></td></tr><tr><td style="font-weight:bold;vertical-align:top;">request_method</td><td style="vertical-align:top;">:</td><td><div>GET</div></td></tr><tr><td style="font-weight:bold;vertical-align:top;">request_uri</td><td style="vertical-align:top;">:</td><td><div>/BootUp/profile/create_step2</div></td></tr><tr><td style="font-weight:bold;vertical-align:top;">script_name</td><td style="vertical-align:top;">:</td><td><div></div></td></tr><tr><td style="font-weight:bold;vertical-align:top;">server_name</td><td style="vertical-align:top;">:</td><td><div>pc975s</div></td></tr><tr><td style="font-weight:bold;vertical-align:top;">server_port</td><td style="vertical-align:top;">:</td><td><div>8000</div></td></tr><tr><td style="font-weight:bold;vertical-align:top;">server_protocol</td><td style="vertical-align:top;">:</td><td><div>HTTP/1.1</div></td></tr><tr><td style="font-weight:bold;vertical-align:top;">server_software</td><td style="vertical-align:top;">:</td><td><div>Rocket 1.2.6</div></td></tr><tr><td style="font-weight:bold;vertical-align:top;">web2py_path</td><td style="vertical-align:top;">:</td><td><div>/usr/userfs/r/rs1019/iapt/web2py</div></td></tr><tr><td style="font-weight:bold;vertical-align:top;">web2py_version</td><td style="vertical-align:top;">:</td><td><div>2.9.11-stable+timestamp.2014.09.15.23.35.11</div></td></tr><tr><td style="font-weight:bold;vertical-align:top;">wsgi.errors</td><td style="vertical-align:top;">:</td><td><div>&lt;open file &#x27;&lt;stderr&gt;&#x27;, mode &#x27;w&#x27; at 0x7f90b08aa1e0&gt;</div></td></tr><tr><td style="font-weight:bold;vertical-align:top;">wsgi.file_wrapper</td><td style="vertical-align:top;">:</td><td><div>&lt;class wsgiref.util.FileWrapper at 0x7f90a8602668&gt;</div></td></tr><tr><td style="font-weight:bold;vertical-align:top;">wsgi.input</td><td style="vertical-align:top;">:</td><td><div>&lt;socket._fileobject object at 0x7f90457a5350&gt;</div></td></tr><tr><td style="font-weight:bold;vertical-align:top;">wsgi.multiprocess</td><td style="vertical-align:top;">:</td><td><div>False</div></td></tr><tr><td style="font-weight:bold;vertical-align:top;">wsgi.multithread</td><td style="vertical-align:top;">:</td><td><div>True</div></td></tr><tr><td style="font-weight:bold;vertical-align:top;">wsgi.run_once</td><td style="vertical-align:top;">:</td><td><div>False</div></td></tr><tr><td style="font-weight:bold;vertical-align:top;">wsgi.url_scheme</td><td style="vertical-align:top;">:</td><td><div>http</div></td></tr><tr><td style="font-weight:bold;vertical-align:top;">wsgi.version</td><td style="vertical-align:top;">:</td><td><div><table><tr><td><div>1</div></td></tr><tr><td><div>0</div></td></tr></table></div></td></tr><tr><td style="font-weight:bold;vertical-align:top;">wsgi_errors</td><td style="vertical-align:top;">:</td><td><div>&lt;open file &#x27;&lt;stderr&gt;&#x27;, mode &#x27;w&#x27; at 0x7f90b08aa1e0&gt;</div></td></tr><tr><td style="font-weight:bold;vertical-align:top;">wsgi_file_wrapper</td><td style="vertical-align:top;">:</td><td><div>&lt;class wsgiref.util.FileWrapper at 0x7f90a8602668&gt;</div></td></tr><tr><td style="font-weight:bold;vertical-align:top;">wsgi_input</td><td style="vertical-align:top;">:</td><td><div>&lt;socket._fileobject object at 0x7f90457a5350&gt;</div></td></tr><tr><td style="font-weight:bold;vertical-align:top;">wsgi_multiprocess</td><td style="vertical-align:top;">:</td><td><div>False</div></td></tr><tr><td style="font-weight:bold;vertical-align:top;">wsgi_multithread</td><td style="vertical-align:top;">:</td><td><div>True</div></td></tr><tr><td style="font-weight:bold;vertical-align:top;">wsgi_run_once</td><td style="vertical-align:top;">:</td><td><div>False</div></td></tr><tr><td style="font-weight:bold;vertical-align:top;">wsgi_url_scheme</td><td style="vertical-align:top;">:</td><td><div>http</div></td></tr><tr><td style="font-weight:bold;vertical-align:top;">wsgi_version</td><td style="vertical-align:top;">:</td><td><div><table><tr><td><div>1</div></td></tr><tr><td><div>0</div></td></tr></table></div></td></tr></table></div></td></tr><tr><td style="font-weight:bold;vertical-align:top;">extension</td><td style="vertical-align:top;">:</td><td><div>html</div></td></tr><tr><td style="font-weight:bold;vertical-align:top;">folder</td><td style="vertical-align:top;">:</td><td><div>/usr/userfs/r/rs1019/iapt/web2py/applications/BootUp/</div></td></tr><tr><td style="font-weight:bold;vertical-align:top;">function</td><td style="vertical-align:top;">:</td><td><div>create_step2</div></td></tr><tr><td style="font-weight:bold;vertical-align:top;">global_settings</td><td style="vertical-align:top;">:</td><td><div><table><tr><td style="font-weight:bold;vertical-align:top;">app_folders</td><td style="vertical-align:top;">:</td><td><div>set([&#x27;/usr/userfs/r/rs1019/iapt/web2py/applications/admin/&#x27;, &#x27;/usr/userfs/r/rs1019/iapt/web2py/applications/welcome/&#x27;, &#x27;/usr/userfs/r/rs1019/iapt/web2py/applications/BootUp/&#x27;])</div></td></tr><tr><td style="font-weight:bold;vertical-align:top;">applications_parent</td><td style="vertical-align:top;">:</td><td><div>/usr/userfs/r/rs1019/iapt/web2py</div></td></tr><tr><td style="font-weight:bold;vertical-align:top;">cmd_args</td><td style="vertical-align:top;">:</td><td><div><table></table></div></td></tr><tr><td style="font-weight:bold;vertical-align:top;">cmd_options</td><td style="vertical-align:top;">:</td><td><div>&lt;Values at 0x7f90a8568440: {&#x27;verbose&#x27;: False, &#x27;ip&#x27;: &#x27;127.0.0.1&#x27;, &#x27;debuglevel&#x27;: 30, &#x27;with_scheduler&#x27;: False, &#x27;ips&#x27;: [&#x27;144.32.179.175&#x27;], &#x27;shutdown_timeout&#x27;: 5, &#x27;taskbar&#x27;: False, &#x27;with_coverage&#x27;: False, &#x27;scheduler_groups&#x27;: None, &#x27;port&#x27;: 8000, &#x27;maxthreads&#x27;: None, &#x27;softcron&#x27;: False, &#x27;server_name&#x27;: &#x27;pc975s&#x27;, &#x27;bpython&#x27;: False, &#x27;nogui&#x27;: False, &#x27;pid_filename&#x27;: &#x27;httpserver.pid&#x27;, &#x27;extcron&#x27;: False, &#x27;runcron&#x27;: False, &#x27;run_system_tests&#x27;: False, &#x27;test&#x27;: None, &#x27;folder&#x27;: &#x27;/usr/userfs/r/rs1019/iapt/web2py&#x27;, &#x27;config&#x27;: &#x27;&#x27;, &#x27;minthreads&#x27;: None, &#x27;shell&#x27;: None, &#x27;run&#x27;: &#x27;&#x27;, &#x27;log_filename&#x27;: &#x27;httpserver.log&#x27;, &#x27;profiler_dir&#x27;: None, &#x27;args&#x27;: [&#x27;&#x27;], &#x27;socket_timeout&#x27;: 5, &#x27;ssl_ca_certificate&#x27;: None, &#x27;scheduler&#x27;: None, &#x27;interfaces&#x27;: None, &#x27;ssl_private_key&#x27;: &#x27;&#x27;, &#x27;gae&#x27;: None, &#x27;password&#x27;: &#x27;&lt;ask&gt;&#x27;, &#x27;request_queue_size&#x27;: 5, &#x27;ssl_certificate&#x27;: &#x27;&#x27;, &#x27;cronjob&#x27;: False, &#x27;numthreads&#x27;: None, &#x27;quiet&#x27;: False, &#x27;import_models&#x27;: False, &#x27;timeout&#x27;: 10, &#x27;plain&#x27;: False, &#x27;nobanner&#x27;: False}&gt;</div></td></tr><tr><td style="font-weight:bold;vertical-align:top;">db_sessions</td><td style="vertical-align:top;">:</td><td><div>set([])</div></td></tr><tr><td style="font-weight:bold;vertical-align:top;">debugging</td><td style="vertical-align:top;">:</td><td><div>False</div></td></tr><tr><td style="font-weight:bold;vertical-align:top;">gluon_parent</td><td style="vertical-align:top;">:</td><td><div>/usr/userfs/r/rs1019/iapt/web2py</div></td></tr><tr><td style="font-weight:bold;vertical-align:top;">is_jython</td><td style="vertical-align:top;">:</td><td><div>False</div></td></tr><tr><td style="font-weight:bold;vertical-align:top;">is_pypy</td><td style="vertical-align:top;">:</td><td><div>False</div></td></tr><tr><td style="font-weight:bold;vertical-align:top;">is_source</td><td style="vertical-align:top;">:</td><td><div>True</div></td></tr><tr><td style="font-weight:bold;vertical-align:top;">local_hosts</td><td style="vertical-align:top;">:</td><td><div><table><tr><td><div>pc975s</div></td></tr><tr><td><div>::ffff:127.0.0.1</div></td></tr><tr><td><div>::1</div></td></tr><tr><td><div>pc975s.cs.york.ac.uk</div></td></tr><tr><td><div>144.32.179.175</div></td></tr><tr><td><div>127.0.0.1</div></td></tr></table></div></td></tr><tr><td style="font-weight:bold;vertical-align:top;">web2py_version</td><td style="vertical-align:top;">:</td><td><div>2.9.11-stable+timestamp.2014.09.15.23.35.11</div></td></tr></table></div></td></tr><tr><td style="font-weight:bold;vertical-align:top;">is_https</td><td style="vertical-align:top;">:</td><td><div>False</div></td></tr><tr><td style="font-weight:bold;vertical-align:top;">is_local</td><td style="vertical-align:top;">:</td><td><div>True</div></td></tr><tr><td style="font-weight:bold;vertical-align:top;">is_restful</td><td style="vertical-align:top;">:</td><td><div>False</div></td></tr><tr><td style="font-weight:bold;vertical-align:top;">is_sheduler</td><td style="vertical-align:top;">:</td><td><div>None</div></td></tr><tr><td style="font-weight:bold;vertical-align:top;">is_shell</td><td style="vertical-align:top;">:</td><td><div>None</div></td></tr><tr><td style="font-weight:bold;vertical-align:top;">now</td><td style="vertical-align:top;">:</td><td><div>datetime.datetime(2014, 11, 29, 18, 19, 18, 211185)</div></td></tr><tr><td style="font-weight:bold;vertical-align:top;">raw_args</td><td style="vertical-align:top;">:</td><td><div></div></td></tr><tr><td style="font-weight:bold;vertical-align:top;">raw_extension</td><td style="vertical-align:top;">:</td><td><div>None</div></td></tr><tr><td style="font-weight:bold;vertical-align:top;">url</td><td style="vertical-align:top;">:</td><td><div>/BootUp/profile/create_step2</div></td></tr><tr><td style="font-weight:bold;vertical-align:top;">utcnow</td><td style="vertical-align:top;">:</td><td><div>datetime.datetime(2014, 11, 29, 18, 19, 18, 211212)</div></td></tr><tr><td style="font-weight:bold;vertical-align:top;">uuid</td><td style="vertical-align:top;">:</td><td><div>BootUp/127.0.0.1.2014-11-29.18-19-18.546ef068-8f94-4ef3-8d35-7b2c52eca821</div></td></tr><tr><td style="font-weight:bold;vertical-align:top;">wsgi</td><td style="vertical-align:top;">:</td><td><div>&lt;gluon.main.LazyWSGI object at 0x7f9045371d50&gt;</div></td></tr></table></div>'
tRp58
sS'frames'
p59
(lp60
(dp61
S'file'
p62
S'/usr/userfs/r/rs1019/iapt/web2py/gluon/restricted.py'
p63
sS'dump'
p64
(dp65
S'environment'
p66
S"{'A': <class 'gluon.html.A'>, 'ANY_OF': <class 'gluon.validators.ANY_OF'>, 'ASSIGNJS': <function ASSIGNJS>, 'Auth': <class 'gluon.tools.Auth'>, 'B': <class 'gluon.html.B'>, 'BEAUTIFY': <class 'gluon.html.BEAUTIFY'>, 'BODY': <class 'gluon.html.BODY'>, 'BR': <class 'gluon.html.BR'>, 'BUTTON': <class 'gluon.html.BUTTON'>, 'CAT': <class 'gluon.html.CAT'>, ...}"
p67
sS'ccode'
p68
S'<code object <module> at 0x7f90459839b0, file "/...lications/BootUp/controllers/profile.py", line 1>'
p69
ssS'lnum'
p70
I224
sS'lines'
p71
(dp72
I224
S'        exec ccode in environment'
p73
sI225
S'    except HTTP:'
p74
sI226
S'        raise'
p75
sI227
S'    except RestrictedError:'
p76
sI228
S'        # do not encapsulate (obfuscate) the original RestrictedError'
p77
sI219
S'    try:'
p78
sI220
S'        if isinstance(code, types.CodeType):'
p79
sI221
S'            ccode = code'
p80
sI222
S'        else:'
p81
sI223
S'            ccode = compile2(code, layer)'
p82
ssS'call'
p83
S'(code="import datetime\\n\\nCOUNTRIES=( \'United Kingdom\', \'...\\n\\n\\nresponse._vars=response._caller(create_step2)\\n", environment={\'A\': <class \'gluon.html.A\'>, \'ANY_OF\': <class \'gluon.validators.ANY_OF\'>, \'ASSIGNJS\': <function ASSIGNJS>, \'Auth\': <class \'gluon.tools.Auth\'>, \'B\': <class \'gluon.html.B\'>, \'BEAUTIFY\': <class \'gluon.html.BEAUTIFY\'>, \'BODY\': <class \'gluon.html.BODY\'>, \'BR\': <class \'gluon.html.BR\'>, \'BUTTON\': <class \'gluon.html.BUTTON\'>, \'CAT\': <class \'gluon.html.CAT\'>, ...}, layer=\'/usr/userfs/r/rs1019/iapt/web2py/applications/BootUp/controllers/profile.py\')'
p84
sS'func'
p85
S'restricted'
p86
sa(dp87
g62
S'/usr/userfs/r/rs1019/iapt/web2py/applications/BootUp/controllers/profile.py'
p88
sg64
(dp89
sg70
I715
sg71
(dp90
I704
S''
sI705
S''
sI706
S''
sI707
S''
sI708
S''
sI709
S''
sI710
S''
sI711
S''
sI712
S''
sI713
S''
ssg83
S'()'
p91
sg85
S'<module>'
p92
sa(dp93
g62
S'/usr/userfs/r/rs1019/iapt/web2py/gluon/globals.py'
p94
sg64
(dp95
S'self'
p96
S'undefined'
p97
sS'f'
S'<function create_step2>'
p98
ssg70
I392
sg71
(dp99
I387
S"        self.flash = ''            # used by the default view layout"
p100
sI388
S'        self.meta = Storage()      # used by web2py_ajax.html'
p101
sI389
S'        self.menu = []             # used by the default view layout'
p102
sI390
S'        self.files = []            # used by web2py_ajax.html'
p103
sI391
S'        self._vars = None'
p104
sI392
S'        self._caller = lambda f: f()'
p105
sI393
S'        self._view_environment = None'
p106
sI394
S'        self._custom_commit = None'
p107
sI395
S'        self._custom_rollback = None'
p108
sI396
S"        self.generic_patterns = ['*']"
p109
ssg83
S'(f=<function create_step2>)'
p110
sg85
S'<lambda>'
p111
sa(dp112
g62
S'/usr/userfs/r/rs1019/iapt/web2py/gluon/tools.py'
p113
sg64
(dp114
S'action'
p115
S'<function create_step2>'
p116
sS'a'
S'()'
p117
sS'b'
g45
ssg70
I3439
sg71
(dp118
I3434
S'                    flag = condition'
p119
sI3435
S'                if not flag:'
p120
sI3436
S'                    current.session.flash = self.messages.access_denied'
p121
sI3437
S'                    return call_or_redirect('
p122
sI3438
S'                        self.settings.on_failed_authorization)'
p123
sI3439
S'                return action(*a, **b)'
p124
sI3440
S'            f.__doc__ = action.__doc__'
p125
sI3441
S'            f.__name__ = action.__name__'
p126
sI3442
S'            f.__dict__.update(action.__dict__)'
p127
sI3443
S'            return f'
p128
ssg83
S'(*a=(), **b={})'
p129
sg85
S'f'
sa(dp130
g62
S'/usr/userfs/r/rs1019/iapt/web2py/applications/BootUp/controllers/profile.py'
p131
sg64
(dp132
S'global request'
p133
S"<Storage {'_vars': <Storage {}>, 'function': 'cr...erfs/r/rs1019/iapt/web2py/applications/BootUp/'}>"
p134
sS'request.vars'
p135
S'<Storage {}>'
p136
sS'global session'
p137
S"<Storage {'_formkey[form_one]': ['dfc07414-6736-...: '', 'id': 20L}>}>, 'create_step_one': 'w43rt'}>"
p138
sS'request.vars.update'
p139
S'<built-in method update of Storage object>'
p140
sS'session.create_step_one'
p141
S"'w43rt'"
p142
ssg70
I132
sg71
(dp143
I128
S'    project_id = request.args(0)'
p144
sI129
S'    user = (db(db.auth_user.id == auth._get_user_id()).select()).first()'
p145
sI130
S''
sI131
S'    if session.create_step_one:'
p146
sI132
S'        request.vars.update(session.create_step_one)'
p147
sI133
S''
sI134
S'    response.flash = request.vars'
p148
sI135
S''
sI136
S'    form = FORM(DIV(INPUT(_id=\'pledge_amount\', _name=\'pledge_amount\', _type=\'text\', _placeholder = "\xc2\xa3", _class=\'span2\',requires=[IS_NOT_EMPTY(error_message=T("Field cannot be left empty")), IS_INT_IN_RANGE(0, 1000000000, error_message=T("Must be a whole number between \xc2\xa30 and \xc2\xa31000000000"))]),'
p149
sI127
S'    pledge_levels = []'
p150
ssg83
S'()'
p151
sg85
S'create_step2'
p152
sasS'pyver'
p153
S'Python 2.7.6: /usr/bin/python (prefix: /usr)'
p154
sS'session'
p155
g57
(S's\x98\n\x00\x00<div><table><tr><td style="font-weight:bold;vertical-align:top;">auth</td><td style="vertical-align:top;">:</td><td><div><table><tr><td style="font-weight:bold;vertical-align:top;">expiration</td><td style="vertical-align:top;">:</td><td><div>3600</div></td></tr><tr><td style="font-weight:bold;vertical-align:top;">hmac_key</td><td style="vertical-align:top;">:</td><td><div>5891a7b2-5795-4be4-ac61-8dc35fa97f00</div></td></tr><tr><td style="font-weight:bold;vertical-align:top;">last_visit</td><td style="vertical-align:top;">:</td><td><div>datetime.datetime(2014, 11, 29, 18, 13, 44, 53265)</div></td></tr><tr><td style="font-weight:bold;vertical-align:top;">user</td><td style="vertical-align:top;">:</td><td><div><table><tr><td style="font-weight:bold;vertical-align:top;">address_id</td><td style="vertical-align:top;">:</td><td><div>11L</div></td></tr><tr><td style="font-weight:bold;vertical-align:top;">bank_details_id</td><td style="vertical-align:top;">:</td><td><div>10L</div></td></tr><tr><td style="font-weight:bold;vertical-align:top;">birthdate</td><td style="vertical-align:top;">:</td><td><div>datetime.date(1964, 3, 15)</div></td></tr><tr><td style="font-weight:bold;vertical-align:top;">email</td><td style="vertical-align:top;">:</td><td><div></div></td></tr><tr><td style="font-weight:bold;vertical-align:top;">first_name</td><td style="vertical-align:top;">:</td><td><div>Michael</div></td></tr><tr><td style="font-weight:bold;vertical-align:top;">id</td><td style="vertical-align:top;">:</td><td><div>20L</div></td></tr><tr><td style="font-weight:bold;vertical-align:top;">last_name</td><td style="vertical-align:top;">:</td><td><div>Scott</div></td></tr><tr><td style="font-weight:bold;vertical-align:top;">registration_id</td><td style="vertical-align:top;">:</td><td><div></div></td></tr><tr><td style="font-weight:bold;vertical-align:top;">registration_key</td><td style="vertical-align:top;">:</td><td><div></div></td></tr><tr><td style="font-weight:bold;vertical-align:top;">reset_password_key</td><td style="vertical-align:top;">:</td><td><div></div></td></tr><tr><td style="font-weight:bold;vertical-align:top;">username</td><td style="vertical-align:top;">:</td><td><div>MichaelScott</div></td></tr></table></div></td></tr><tr><td style="font-weight:bold;vertical-align:top;">user_groups</td><td style="vertical-align:top;">:</td><td><div><table></table></div></td></tr></table></div></td></tr><tr><td style="font-weight:bold;vertical-align:top;">create_step_one</td><td style="vertical-align:top;">:</td><td><div>w43rt</div></td></tr><tr><td style="font-weight:bold;vertical-align:top;">flash</td><td style="vertical-align:top;">:</td><td><div>None</div></td></tr></table></div>'
tRp156
sS'etype'
p157
S"<type 'exceptions.ValueError'>"
p158
sS'date'
p159
S'Sat Nov 29 18:19:18 2014'
p160
sS'response'
p161
g57
(S's\xac2\x00\x00<div><table><tr><td style="font-weight:bold;vertical-align:top;">body</td><td style="vertical-align:top;">:</td><td><div>&lt;cStringIO.StringO object at 0x7f9045500848&gt;</div></td></tr><tr><td style="font-weight:bold;vertical-align:top;">cookies</td><td style="vertical-align:top;">:</td><td><div><table><tr><td style="font-weight:bold;vertical-align:top;">session_id_bootup</td><td style="vertical-align:top;">:</td><td><div>127.0.0.1-7f1b42e7-cac4-41a1-8dcb-a56ccc235d31<table><tr><td style="font-weight:bold;vertical-align:top;">comment</td><td style="vertical-align:top;">:</td><td><div></div></td></tr><tr><td style="font-weight:bold;vertical-align:top;">domain</td><td style="vertical-align:top;">:</td><td><div></div></td></tr><tr><td style="font-weight:bold;vertical-align:top;">expires</td><td style="vertical-align:top;">:</td><td><div></div></td></tr><tr><td style="font-weight:bold;vertical-align:top;">httponly</td><td style="vertical-align:top;">:</td><td><div></div></td></tr><tr><td style="font-weight:bold;vertical-align:top;">max-age</td><td style="vertical-align:top;">:</td><td><div></div></td></tr><tr><td style="font-weight:bold;vertical-align:top;">path</td><td style="vertical-align:top;">:</td><td><div>/</div></td></tr><tr><td style="font-weight:bold;vertical-align:top;">secure</td><td style="vertical-align:top;">:</td><td><div></div></td></tr><tr><td style="font-weight:bold;vertical-align:top;">version</td><td style="vertical-align:top;">:</td><td><div></div></td></tr></table></div></td></tr></table></div></td></tr><tr><td style="font-weight:bold;vertical-align:top;">delimiters</td><td style="vertical-align:top;">:</td><td><div><table><tr><td><div>{{</div></td></tr><tr><td><div>}}</div></td></tr></table></div></td></tr><tr><td style="font-weight:bold;vertical-align:top;">files</td><td style="vertical-align:top;">:</td><td><div><table></table></div></td></tr><tr><td style="font-weight:bold;vertical-align:top;">flash</td><td style="vertical-align:top;">:</td><td><div></div></td></tr><tr><td style="font-weight:bold;vertical-align:top;">form_label_separator</td><td style="vertical-align:top;">:</td><td><div>: </div></td></tr><tr><td style="font-weight:bold;vertical-align:top;">formstyle</td><td style="vertical-align:top;">:</td><td><div>table3cols</div></td></tr><tr><td style="font-weight:bold;vertical-align:top;">generic_patterns</td><td style="vertical-align:top;">:</td><td><div><table><tr><td><div>*</div></td></tr></table></div></td></tr><tr><td style="font-weight:bold;vertical-align:top;">google_analytics_id</td><td style="vertical-align:top;">:</td><td><div>None</div></td></tr><tr><td style="font-weight:bold;vertical-align:top;">headers</td><td style="vertical-align:top;">:</td><td><div><table><tr><td style="font-weight:bold;vertical-align:top;">X-Powered-By</td><td style="vertical-align:top;">:</td><td><div>web2py</div></td></tr></table></div></td></tr><tr><td style="font-weight:bold;vertical-align:top;">logo</td><td style="vertical-align:top;">:</td><td><div><a class="brand" href="http://www.web2py.com/"><b>web<span>2</span>py</b>&trade;&nbsp;</a></div></td></tr><tr><td style="font-weight:bold;vertical-align:top;">menu</td><td style="vertical-align:top;">:</td><td><div><table><tr><td><div><table><tr><td><div>Home</div></td></tr><tr><td><div>False</div></td></tr><tr><td><div>/BootUp/default/index</div></td></tr><tr><td><div><table></table></div></td></tr></table></div></td></tr><tr><td><div><table><tr><td><div><span class="highlighted">web2py</span></div></td></tr><tr><td><div>False</div></td></tr><tr><td><div>http://web2py.com</div></td></tr><tr><td><div><table><tr><td><div><table><tr><td><div>My Sites</div></td></tr><tr><td><div>False</div></td></tr><tr><td><div>/admin/default/site</div></td></tr></table></div></td></tr><tr><td><div><table><tr><td><div>This App</div></td></tr><tr><td><div>False</div></td></tr><tr><td><div>/admin/default/design/BootUp</div></td></tr><tr><td><div>[(&lt;lazyT &#x27;Controller&#x27;&gt;, False, &#x27;/admin/default/edit/BootUp/controllers/profile.py&#x27;), (&lt;lazyT &#x27;View&#x27;&gt;, False, &#x27;/admin/default/edit/BootUp/views/profile/create_step2.html&#x27;), (&lt;lazyT &#x27;Layout&#x27;&gt;, False, &#x27;/admin/default/edit/BootUp/views/layout.html&#x27;), (&lt;lazyT &#x27;Stylesheet&#x27;&gt;, False, &#x27;/admin/default/edit/BootUp/static/css/web2py.css&#x27;), (&lt;lazyT &#x27;DB Model&#x27;&gt;, False, &#x27;/admin/default/edit/BootUp/models/db.py&#x27;), (&lt;lazyT &#x27;Menu Model&#x27;&gt;, False, &#x27;/admin/default/edit/BootUp/models/menu.py&#x27;), (&lt;lazyT &#x27;Database&#x27;&gt;, False, &#x27;/BootUp/appadmin/index&#x27;), (&lt;lazyT &#x27;Errors&#x27;&gt;, False, &#x27;/admin/default/errors/BootUp&#x27;), (&lt;lazyT &#x27;About&#x27;&gt;, False, &#x27;/admin/default/about/BootUp&#x27;)]</div></td></tr></table></div></td></tr><tr><td><div><table><tr><td><div>web2py.com</div></td></tr><tr><td><div>False</div></td></tr><tr><td><div>http://www.web2py.com</div></td></tr><tr><td><div>[(&lt;lazyT &#x27;Download&#x27;&gt;, False, &#x27;http://www.web2py.com/examples/default/download&#x27;), (&lt;lazyT &#x27;Support&#x27;&gt;, False, &#x27;http://www.web2py.com/examples/default/support&#x27;), (&lt;lazyT &#x27;Demo&#x27;&gt;, False, &#x27;http://web2py.com/demo_admin&#x27;), (&lt;lazyT &#x27;Quick Examples&#x27;&gt;, False, &#x27;http://web2py.com/examples/default/examples&#x27;), (&lt;lazyT &#x27;FAQ&#x27;&gt;, False, &#x27;http://web2py.com/AlterEgo&#x27;), (&lt;lazyT &#x27;Videos&#x27;&gt;, False, &#x27;http://www.web2py.com/examples/default/videos/&#x27;), (&lt;lazyT &#x27;Free Applications&#x27;&gt;, False, &#x27;http://web2py.com/appliances&#x27;), (&lt;lazyT &#x27;Plugins&#x27;&gt;, False, &#x27;http://web2py.com/plugins&#x27;), (&lt;lazyT &#x27;Layouts&#x27;&gt;, False, &#x27;http://web2py.com/layouts&#x27;), (&lt;lazyT &#x27;Recipes&#x27;&gt;, False, &#x27;http://web2pyslices.com/&#x27;), (&lt;lazyT &#x27;Semantic&#x27;&gt;, False, &#x27;http://web2py.com/semantic&#x27;)]</div></td></tr></table></div></td></tr><tr><td><div><table><tr><td><div>Documentation</div></td></tr><tr><td><div>False</div></td></tr><tr><td><div>http://www.web2py.com/book</div></td></tr><tr><td><div>[(&lt;lazyT &#x27;Preface&#x27;&gt;, False, &#x27;http://www.web2py.com/book/default/chapter/00&#x27;), (&lt;lazyT &#x27;Introduction&#x27;&gt;, False, &#x27;http://www.web2py.com/book/default/chapter/01&#x27;), (&lt;lazyT &#x27;Python&#x27;&gt;, False, &#x27;http://www.web2py.com/book/default/chapter/02&#x27;), (&lt;lazyT &#x27;Overview&#x27;&gt;, False, &#x27;http://www.web2py.com/book/default/chapter/03&#x27;), (&lt;lazyT &#x27;The Core&#x27;&gt;, False, &#x27;http://www.web2py.com/book/default/chapter/04&#x27;), (&lt;lazyT &#x27;The Views&#x27;&gt;, False, &#x27;http://www.web2py.com/book/default/chapter/05&#x27;), (&lt;lazyT &#x27;Database&#x27;&gt;, False, &#x27;http://www.web2py.com/book/default/chapter/06&#x27;), (&lt;lazyT &#x27;Forms and Validators&#x27;&gt;, False, &#x27;http://www.web2py.com/book/default/chapter/07&#x27;), (&lt;lazyT &#x27;Email and SMS&#x27;&gt;, False, &#x27;http://www.web2py.com/book/default/chapter/08&#x27;), (&lt;lazyT &#x27;Access Control&#x27;&gt;, False, &#x27;http://www.web2py.com/book/default/chapter/09&#x27;), (&lt;lazyT &#x27;Services&#x27;&gt;, False, &#x27;http://www.web2py.com/book/default/chapter/10&#x27;), (&lt;lazyT &#x27;Ajax Recipes&#x27;&gt;, False, &#x27;http://www.web2py.com/book/default/chapter/11&#x27;), (&lt;lazyT &#x27;Components and Plugins&#x27;&gt;, False, &#x27;http://www.web2py.com/book/default/chapter/12&#x27;), (&lt;lazyT &#x27;Deployment Recipes&#x27;&gt;, False, &#x27;http://www.web2py.com/book/default/chapter/13&#x27;), (&lt;lazyT &#x27;Other Recipes&#x27;&gt;, False, &#x27;http://www.web2py.com/book/default/chapter/14&#x27;), (&lt;lazyT &#x27;Buy this book&#x27;&gt;, False, &#x27;http://stores.lulu.com/web2py&#x27;)]</div></td></tr></table></div></td></tr><tr><td><div><table><tr><td><div>Community</div></td></tr><tr><td><div>False</div></td></tr><tr><td><div>None</div></td></tr><tr><td><div>[(&lt;lazyT &#x27;Groups&#x27;&gt;, False, &#x27;http://www.web2py.com/examples/default/usergroups&#x27;), (&lt;lazyT &#x27;Twitter&#x27;&gt;, False, &#x27;http://twitter.com/web2py&#x27;), (&lt;lazyT &#x27;Live Chat&#x27;&gt;, False, &#x27;http://webchat.freenode.net/?channels=web2py&#x27;)]</div></td></tr></table></div></td></tr><tr><td><div><table><tr><td><div>Plugins</div></td></tr><tr><td><div>False</div></td></tr><tr><td><div>None</div></td></tr><tr><td><div>[(&#x27;plugin_wiki&#x27;, False, &#x27;http://web2py.com/examples/default/download&#x27;), (&lt;lazyT &#x27;Other Plugins&#x27;&gt;, False, &#x27;http://web2py.com/plugins&#x27;), (&lt;lazyT &#x27;Layout Plugins&#x27;&gt;, False, &#x27;http://web2py.com/layouts&#x27;)]</div></td></tr></table></div></td></tr></table></div></td></tr></table></div></td></tr></table></div></td></tr><tr><td style="font-weight:bold;vertical-align:top;">meta</td><td style="vertical-align:top;">:</td><td><div><table><tr><td style="font-weight:bold;vertical-align:top;">author</td><td style="vertical-align:top;">:</td><td><div>Your Name &lt;you@example.com&gt;</div></td></tr><tr><td style="font-weight:bold;vertical-align:top;">generator</td><td style="vertical-align:top;">:</td><td><div>Web2py Web Framework</div></td></tr><tr><td style="font-weight:bold;vertical-align:top;">keywords</td><td style="vertical-align:top;">:</td><td><div>web2py, python, framework</div></td></tr></table></div></td></tr><tr><td style="font-weight:bold;vertical-align:top;">models_to_run</td><td style="vertical-align:top;">:</td><td><div><table><tr><td><div>^\\w+\\.py$</div></td></tr><tr><td><div>^profile/\\w+\\.py$</div></td></tr><tr><td><div>^profile/create_step2/\\w+\\.py$</div></td></tr></table></div></td></tr><tr><td style="font-weight:bold;vertical-align:top;">postprocessing</td><td style="vertical-align:top;">:</td><td><div><table></table></div></td></tr><tr><td style="font-weight:bold;vertical-align:top;">session_client</td><td style="vertical-align:top;">:</td><td><div>127.0.0.1</div></td></tr><tr><td style="font-weight:bold;vertical-align:top;">session_cookie_compression_level</td><td style="vertical-align:top;">:</td><td><div>None</div></td></tr><tr><td style="font-weight:bold;vertical-align:top;">session_cookie_expires</td><td style="vertical-align:top;">:</td><td><div>None</div></td></tr><tr><td style="font-weight:bold;vertical-align:top;">session_cookie_key</td><td style="vertical-align:top;">:</td><td><div>None</div></td></tr><tr><td style="font-weight:bold;vertical-align:top;">session_data_name</td><td style="vertical-align:top;">:</td><td><div>session_data_bootup</div></td></tr><tr><td style="font-weight:bold;vertical-align:top;">session_file</td><td style="vertical-align:top;">:</td><td><div>&lt;open file &#x27;/usr/userfs/r/rs1019/iapt/web2py/applications/BootUp/sessions/1f4/0e7/127.0.0.1-7f1b42e7-cac4-41a1-8dcb-a56ccc235d31&#x27;, mode &#x27;rb+&#x27; at 0x7f90a856f300&gt;</div></td></tr><tr><td style="font-weight:bold;vertical-align:top;">session_filename</td><td style="vertical-align:top;">:</td><td><div>/usr/userfs/r/rs1019/iapt/web2py/applications/BootUp/sessions/127.0.0.1-7f1b42e7-cac4-41a1-8dcb-a56ccc235d31</div></td></tr><tr><td style="font-weight:bold;vertical-align:top;">session_hash</td><td style="vertical-align:top;">:</td><td><div>7c8c0656b9d02db3f84ff27210b4d718</div></td></tr><tr><td style="font-weight:bold;vertical-align:top;">session_id</td><td style="vertical-align:top;">:</td><td><div>127.0.0.1-7f1b42e7-cac4-41a1-8dcb-a56ccc235d31</div></td></tr><tr><td style="font-weight:bold;vertical-align:top;">session_id_name</td><td style="vertical-align:top;">:</td><td><div>session_id_bootup</div></td></tr><tr><td style="font-weight:bold;vertical-align:top;">session_locked</td><td style="vertical-align:top;">:</td><td><div>True</div></td></tr><tr><td style="font-weight:bold;vertical-align:top;">session_masterapp</td><td style="vertical-align:top;">:</td><td><div>BootUp</div></td></tr><tr><td style="font-weight:bold;vertical-align:top;">session_new</td><td style="vertical-align:top;">:</td><td><div>False</div></td></tr><tr><td style="font-weight:bold;vertical-align:top;">session_storage_type</td><td style="vertical-align:top;">:</td><td><div>file</div></td></tr><tr><td style="font-weight:bold;vertical-align:top;">status</td><td style="vertical-align:top;">:</td><td><div>200</div></td></tr><tr><td style="font-weight:bold;vertical-align:top;">subtitle</td><td style="vertical-align:top;">:</td><td><div></div></td></tr><tr><td style="font-weight:bold;vertical-align:top;">title</td><td style="vertical-align:top;">:</td><td><div>Bootup</div></td></tr><tr><td style="font-weight:bold;vertical-align:top;">view</td><td style="vertical-align:top;">:</td><td><div>profile/create_step2.html</div></td></tr></table></div>'
tRp162
sS'locals'
p163
(dp164
S'project_id'
p165
S'None'
p166
sS'user'
p167
S"<Row {'username': 'MichaelScott', 'first_name': ...c3f56150b', 'registration_key': '', 'email': ''}>"
p168
sS'pledge_levels'
p169
S'[]'
p170
sssS'traceback'
p171
S'Traceback (most recent call last):\n  File "/usr/userfs/r/rs1019/iapt/web2py/gluon/restricted.py", line 224, in restricted\n    exec ccode in environment\n  File "/usr/userfs/r/rs1019/iapt/web2py/applications/BootUp/controllers/profile.py", line 715, in <module>\n  File "/usr/userfs/r/rs1019/iapt/web2py/gluon/globals.py", line 392, in <lambda>\n    self._caller = lambda f: f()\n  File "/usr/userfs/r/rs1019/iapt/web2py/gluon/tools.py", line 3439, in f\n    return action(*a, **b)\n  File "/usr/userfs/r/rs1019/iapt/web2py/applications/BootUp/controllers/profile.py", line 132, in create_step2\n    request.vars.update(session.create_step_one)\nValueError: dictionary update sequence element #0 has length 1; 2 is required\n'
p172
s.