(dp1
S'output'
p2
S"<type 'exceptions.SyntaxError'> Field id_address does not belong to the table"
p3
sS'layer'
p4
S'C:\\Web2Py\\web2py_win\\web2py\\applications\\BootUp\\controllers/default.py'
p5
sS'code'
p6
S'# -*- coding: utf-8 -*-\n# this file is released under public domain and you can use without limitations\n\n#########################################################################\n## This is a sample controller\n## - index is the default action of any application\n## - user is required for authentication and authorization\n## - download is for downloading files uploaded in the db (does streaming)\n## - api is an example of Hypermedia API support and access control\n#########################################################################\n\n\nCOUNTRIES=(\'United States\', \'Afghanistan\', \'Albania\', \'Algeria\', \'Andorra\', \'Angola\', \'Antigua and Barbuda\', \'Argentina\', \'Armenia\', \'Australia\', \'Austria\', \'Azerbaijan\', \'Bahamas\', \'Bahrain\', \'Bangladesh\', \'Barbados\', \'Belarus\', \'Belgium\', \'Belize\', \'Benin\', \'Bhutan\', \'Bolivia\', \'Bosnia and Herzegovina\', \'Botswana\', \'Brazil\', \'Brunei\', \'Bulgaria\', \'Burkina Faso\', \'Burundi\', \'Cambodia\', \'Cameroon\', \'Canada\', \'Cape Verde\', \'Central African Republic\', \'Chad\', \'Chile\', \'China\', \'Colombia\', \'Comoros\', \'Congo\', \'Costa Rica\', \'Ivory Coast\', \'Croatia\', \'Cuba\', \'Cyprus\', \'Czech Republic\', \'Denmark\', \'Djibouti\', \'Dominica\', \'Dominican Republic\', \'East Timor\', \'Ecuador\', \'Egypt\', \'El Salvador\', \'Equatorial Guinea\', \'Eritrea\', \'Estonia\', \'Ethiopia\', \'Fiji\', \'Finland\', \'France\', \'Gabon\', \'Gambia\', \'Georgia\', \'Germany\', \'Ghana\', \'Greece\', \'Grenada\', \'Guatemala\', \'Guinea\', \'Guinea-Bissau\', \'Guyana\', \'Haiti\', \'Honduras\', \'Hong Kong\', \'Hungary\', \'Iceland\', \'India\', \'Indonesia\', \'Iran\', \'Iraq\', \'Ireland\', \'Israel\', \'Italy\', \'Jamaica\', \'Japan\', \'Jordan\', \'Kazakhstan\', \'Kenya\', \'Kiribati\', \'North Korea\',\'South Korea\', \'Kuwait\', \'Kyrgyzstan\', \'Laos\', \'Latvia\', \'Lebanon\', \'Lesotho\', \'Liberia\', \'Libya\', \'Liechtenstein\', \'Lithuania\', \'Luxembourg\', \'FYROM\', \'Madagascar\', \'Malawi\', \'Malaysia\', \'Maldives\', \'Mali\', \'Malta\', \'Marshall Islands\', \'Mauritania\', \'Mauritius\', \'Mexico\', \'Micronesia\', \'Moldova\', \'Monaco\', \'Mongolia\', \'Montenegro\', \'Morocco\', \'Mozambique\', \'Myanmar\', \'Namibia\', \'Nauru\', \'Nepal\', \'Netherlands\', \'New Zealand\', \'Nicaragua\', \'Niger\', \'Nigeria\', \'Norway\', \'Oman\', \'Pakistan\', \'Palau\', \'Palestine\', \'Panama\', \'Papua New Guinea\', \'Paraguay\', \'Peru\', \'Philippines\', \'Poland\', \'Portugal\', \'Puerto Rico\', \'Qatar\', \'Romania\', \'Russia\', \'Rwanda\', \'Saint Kitts and Nevis\', \'Saint Lucia\', \'Saint Vincent and the Grenadines\', \'Samoa\', \'San Marino\', \'Sao Tome and Principe\', \'Saudi Arabia\', \'Senegal\', \'Serbia and Montenegro\', \'Seychelles\', \'Sierra Leone\', \'Singapore\', \'Slovakia\', \'Slovenia\', \'Solomon Islands\', \'Somalia\', \'South Africa\', \'Spain\', \'Sri Lanka\', \'Sudan\', \'Suriname\', \'Swaziland\', \'Sweden\', \'Switzerland\', \'Syria\', \'Taiwan\', \'Tajikistan\', \'Tanzania\', \'Thailand\', \'Togo\', \'Tonga\', \'Trinidad and Tobago\', \'Tunisia\', \'Turkey\', \'Turkmenistan\', \'Tuvalu\', \'Uganda\', \'Ukraine\', \'United Arab Emirates\', \'United Kingdom\', \'Uruguay\', \'Uzbekistan\', \'Vanuatu\', \'Vatican City\', \'Venezuela\', \'Vietnam\', \'Yemen\', \'Zambia\', \'Zimbabwe\')\n\n\n\ndef index():\n    """\n    example action using the internationalization operator T and flash\n    rendered by views/default/index.html or views/generic.html\n\n    if you need a simple wiki simply replace the two lines below with:\n    return auth.wiki()\n    """\n    response.flash = T("Welcome to web2py!")\n    return dict(message=T(\'Hello World\'))\n\ndef login():\n\n\n    form = FORM(LEGEND(\'Login\'), INPUT(_type=\'text\', _name=\'username\', _class = \'input-block-level\', _placeholder=\'username\', requires=IS_NOT_EMPTY( error_message=T("Please enter a username"))),\n                 INPUT(_type=\'password\',_name=\'password\', _class = \'input-block-level\', _placeholder=\'password\', requires=IS_NOT_EMPTY(error_message=T("Please enter a password"))), INPUT(_type=\'submit\', _class=\'btn btn-primary\', _value=\'Login\'),\n                 A(\'Register\',_href=URL(\'register\'), _role=\'button\', _class=\'btn btn-info\'))\n    if form.process(onvalidation=login_validation).accepted:\n        response.flash = \'form accepted\'\n        user = auth.login_bare(request.vars.username, request.vars.password)\n        if(user is False):\n            response.flash = DIV("Invalid Username/Password Combination", _class=\'alert alert-error\')\n        else:\n            redirect(URL(\'index\'))\n    elif form.errors:\n        response.flash = DIV("Username or Password field is empty", _class=\'alert alert-error\')\n\n\n\n\n    return dict(form=form)\n\ndef login_validation(form):\n    if form.vars.username =="cat":\n        form.errors.username= "Hello Cat"\n    if form.vars.password == None:\n        form.errors.password = "Password can not be empty"\n\ndef register():\n\n    addr_id =""\n    form= FORM(FIELDSET(\n\n                        LEGEND(\'Personal Information\'),\n                        DIV(LABEL(\'First Name:\', _for=\'first_name\'),INPUT(_id=\'first_name\', _name=\'first_name\', _type=\'text\', _class=\'span4\',requires=IS_NOT_EMPTY(error_message=T("Field cannot be left empty"))),\n                            LABEL(\'Last Name:\', _for=\'last_name\'),INPUT(_id=\'last_name\', _name=\'last_name\', _type=\'text\', _class=\'span4\',requires=IS_NOT_EMPTY(error_message=T("Field cannot be left empty")))\n                            ,_class=\'controls control-group\'),\n\n\n                        DIV( LABEL(\'Date of Birth:\'),INPUT( _name=\'day_DOB\', _type=\'text\', _class=\'span1\', _maxlength=\'2\',_placeholder="dd",requires=IS_NOT_EMPTY(error_message=T("Field cannot be left empty"))),\n                             INPUT( _name=\'month_DOB\', _type=\'text\', _class=\'span1\', _maxlength=\'2\', _placeholder=\'mm\',requires=IS_NOT_EMPTY(error_message=T("Field cannot be left empty"))),\n                             INPUT( _name=\'year_DOB\', _type=\'text\', _class=\'span1\', _maxlength=\'4\', _placeholder=\'yyyy\',requires=IS_NOT_EMPTY(error_message=T("Field cannot be left empty")))\n                             ,_class="controls controls-row"),\n\n                        LEGEND(\'Login Credentials\'),\n                        DIV(LABEL(\'Username:\', _for=\'username\'),INPUT(_id=\'username\', _name=\'username\', _type=\'text\', _class=\'span4\',requires=[IS_NOT_EMPTY(error_message=T("Field cannot be left empty")), IS_NOT_IN_DB(db, \'auth_user.username\', error_message=\'Username already taken\')]),\n                            LABEL(\'Password:\', _for=\'password\'),INPUT(_id=\'password\', _name=\'password\', _type=\'password\', _class=\'span4\',requires=IS_NOT_EMPTY(error_message=T("Field cannot be left empty"))),\n                            LABEL(\'Confirm Password:\', _for=\'confirm_password\'),INPUT(_id=\'confirm_password\', _name=\'confirm_password\', _type=\'password\', _class=\'span4\'\n                            , requires=[IS_EQUAL_TO(request.vars.password, error_message=T("Passwords do not match")), IS_NOT_EMPTY(error_message=T("Field cannot be left empty"))])\n                            ,_class=\'controls control-group\'),\n\n                        LEGEND(\'Home Address\'),\n                        DIV(LABEL(\'Street:\', _for=\'street\'),INPUT(_id=\'street\', _name=\'street\', _type=\'text\', _class=\'span4\',requires=IS_NOT_EMPTY(error_message=T("Field cannot be left empty"))),\n                            LABEL(\'City:\', _for=\'city\'),INPUT(_id=\'city\', _name=\'city\', _type=\'text\', _class=\'span4\',requires=IS_NOT_EMPTY(error_message=T("Field cannot be left empty"))),\n                            LABEL(\'Postcode:\', _for=\'postcode\'),INPUT(_id=\'postcode\', _name=\'postcode\', _type=\'text\', _class=\'span4\',requires=[IS_NOT_EMPTY(error_message=T("Field cannot be left empty")),\n                            IS_MATCH(\'^[A-Z0-9]{4} [A-Z0-9]{3}$\', error_message="Postcode is not valid" )]),\n                            LABEL(\'Country:\', _for=\'country\'),INPUT(_id=\'country\', _name=\'country\', _type=\'text\', _class=\'span4\',requires=[IS_NOT_EMPTY(error_message=T("Field cannot be left empty")), IS_IN_SET(COUNTRIES)])\n                            ,_class=\'controls control-group\'),\n\n                        LEGEND(\'Billing Information\'),\n                        DIV(LABEL(\'Card Number:\', _for=\'card_number\'),INPUT(_id=\'card_number\', _name=\'card_number\', _type=\'text\', _class=\'span4\', requires=[IS_NOT_EMPTY(error_message=T("Field cannot be left empty")),\n                            IS_LENGTH(minsize=12, maxsize=12, error_message="Card number must be 12 digits long"), IS_MATCH(\'^[0-9]{12,12}$\', error_message="Card number must be 12 digits long" )]),\n                            LABEL(\'Expiry Date:\', _for=\'expiry_date\'),INPUT(_id=\'expiry_date\', _name=\'expiry_date\', _type=\'text\', _class=\'span4\',requires=IS_NOT_EMPTY(error_message=T("Field cannot be left empty"))),\n                            LABEL(\'Security Code:\', _for=\'security_code\'),INPUT(_id=\'security_code\', _name=\'security_code\', _type=\'text\', _class=\'span4\',requires=[IS_NOT_EMPTY(error_message=T("Field cannot be left empty")),\n                            IS_LENGTH(minsize=3, maxsize=3, error_message="Security code contain 3 numbers"), IS_MATCH(\'^[0-9]{3}$\', error_message=\'Security code must contain 3 numbers\')])\n                            ,_class=\'controls control-group\'),\n\n                        LEGEND(\'Billing Address\'),\n                        DIV(LABEL(INPUT(_id=\'billing_checkbox\', _name=\'billing_checkbox\', _value=\'yes\', _onclick=\'javascript:toggleAddressAvailibility();\', _type=\'checkbox\' ), \'Same as Home Address\',_class=\'checkbox\'),\n                            LABEL(\'Street:\', _for=\'billing_street\'),INPUT(_id=\'billing_street\', _name=\'billing_street\', _type=\'text\', _class=\'span4\'),\n                            LABEL(\'City:\', _for=\'billing_city\'),INPUT(_id=\'billing_city\', _name=\'billing_city\', _type=\'text\', _class=\'span4\'),\n                            LABEL(\'Postcode:\', _for=\'billing_postcode\'),INPUT(_id=\'billing_postcode\', _name=\'billing_postcode\', _type=\'text\', _class=\'span4\'),\n                            LABEL(\'Country:\', _for=\'billing_country\'),INPUT(_id=\'billing_country\', _name=\'billing_country\', _type=\'text\', _class=\'span4\')\n                            ,_class=\'controls control-group\'),\n\n                         INPUT(_type=\'submit\', _class=\'btn btn-primary\', _value=\'Register\')\n\n\n    ))\n\n\n\n\n\n    if form.process().accepted:\n\n        dob = request.vars.day_DOB+ "/" +  request.vars.month_DOB +"/" + request.vars.year_DOB\n\n        addressAlreadyInDBQuery = db((db.address.street ==request.vars.street) and (db.address.city == request.vars.city)\n                                         and (db.address.country == request.vars.country) and\n                                        (db.address.postcode == request.vars.postcode)).select()\n\n        if(len(addressAlreadyInDBQuery) >0):\n            address = addressAlreadyInDBQuery[0].id\n        else:\n            address = db.address.insert(street = request.vars.street, city = request.vars.city, country = request.vars.country,\n                        postcode = request.vars.postcode)\n\n        bankDetailsAlreadyInDBQuery = db(db.bank_details.card_number == request.vars.card_number).select()\n\n        if(len( bankDetailsAlreadyInDBQuery) >0):\n            bank_details = bankDetailsAlreadyInDBQuery[0].id\n\n        else:\n\n            if(request.vars.billing_checkbox == \'yes\'):\n                bank_details = db.bank_details.insert(card_number = request.vars.card_number, security_code = request.vars.security_code,\n                                              address_id = address, expiry_date = request.vars.expiry_date)\n\n            else:\n                billingAddressAlreadyInDBQuery = db((db.address.street ==request.vars.billing_street) and (db.address.city == request.vars.billing_city)\n                                             and (db.address.country == request.vars.billing_country) and\n                                            (db.address.postcode == request.vars.billing_postcode)).select()\n\n                if(len(billingAddressAlreadyInDBQuery) >0):\n                    bank_address = billingAddressAlreadyInDBQuery[0].id\n                else:\n                    bank_address = db.address.insert(street = request.vars.billing_street, city = request.vars.billing_city, country = request.vars.billing_country,\n                                    postcode = request.vars.billing_postcode)\n\n\n\n                bank_details = db.bank_details.insert(card_number = request.vars.card_number, security_code = request.vars.security_code,\n                                                  address_id = bank_address, expiry_date = request.vars.expiry_date)\n\n\n\n\n\n\n        db.auth_user.insert(username = request.vars.username, password = db.auth_user.password.validate(request.vars.password)[0],\n                       first_name = request.vars.first_name, last_name = request.vars.last_name, birthdate = dob, bank_details_id = bank_details,\n                       id_address = address)\n\n        auth.login_bare(request.vars.username, request.vars.password)\n        response.flash = \'accepted\'\n\n    return dict(form=form, addr_id=addr_id)\n\n\n\ndef user():\n    """\n    exposes:\n    http://..../[app]/default/user/login\n    http://..../[app]/default/user/logout\n    http://..../[app]/default/user/register\n    http://..../[app]/default/user/profile\n    http://..../[app]/default/user/retrieve_password\n    http://..../[app]/default/user/change_password\n    http://..../[app]/default/user/manage_users (requires membership in\n    use @auth.requires_login()\n        @auth.requires_membership(\'group name\')\n        @auth.requires_permission(\'read\',\'table name\',record_id)\n    to decorate functions that need access control\n    """\n    return dict(form=auth())\n\n\n@cache.action()\ndef download():\n    """\n    allows downloading of uploaded files\n    http://..../[app]/default/download/[filename]\n    """\n    return response.download(request, db)\n\n\ndef call():\n    """\n    exposes services. for example:\n    http://..../[app]/default/call/jsonrpc\n    decorate with @services.jsonrpc the functions to expose\n    supports xml, json, xmlrpc, jsonrpc, amfrpc, rss, csv\n    """\n    return service()\n\n\n@auth.requires_login() \ndef api():\n    """\n    this is example of API with access control\n    WEB2PY provides Hypermedia API (Collection+JSON) Experimental\n    """\n    from gluon.contrib.hypermedia import Collection\n    rules = {\n        \'<tablename>\': {\'GET\':{},\'POST\':{},\'PUT\':{},\'DELETE\':{}},\n        }\n    return Collection(db).process(request,response,rules)\n\nresponse._vars=response._caller(register)\n'
p7
sS'snapshot'
p8
(dp9
S'exception'
p10
(dp11
S'__getslice__'
p12
S"<method-wrapper '__getslice__' of exceptions.SyntaxError object>"
p13
sS'text'
p14
S'None'
p15
sS'__str__'
p16
S"<method-wrapper '__str__' of exceptions.SyntaxError object>"
p17
sS'__reduce__'
p18
S'<built-in method __reduce__ of exceptions.SyntaxError object>'
p19
sS'__dict__'
p20
S'{}'
p21
sS'__sizeof__'
p22
S'<built-in method __sizeof__ of exceptions.SyntaxError object>'
p23
sS'__init__'
p24
S"<method-wrapper '__init__' of exceptions.SyntaxError object>"
p25
sS'__setattr__'
p26
S"<method-wrapper '__setattr__' of exceptions.SyntaxError object>"
p27
sS'__reduce_ex__'
p28
S'<built-in method __reduce_ex__ of exceptions.SyntaxError object>'
p29
sS'__new__'
p30
S'<built-in method __new__ of type object>'
p31
sS'__format__'
p32
S'<built-in method __format__ of exceptions.SyntaxError object>'
p33
sS'__class__'
p34
S"<type 'exceptions.SyntaxError'>"
p35
sS'filename'
p36
S'None'
p37
sS'lineno'
p38
S'None'
p39
sS'msg'
p40
S"'Field id_address does not belong to the table'"
p41
sS'__doc__'
p42
S"'Invalid syntax.'"
p43
sS'__getitem__'
p44
S"<method-wrapper '__getitem__' of exceptions.SyntaxError object>"
p45
sS'__setstate__'
p46
S'<built-in method __setstate__ of exceptions.SyntaxError object>'
p47
sS'__getattribute__'
p48
S"<method-wrapper '__getattribute__' of exceptions.SyntaxError object>"
p49
sS'print_file_and_line'
p50
S'None'
p51
sS'args'
p52
S"('Field id_address does not belong to the table',)"
p53
sS'__subclasshook__'
p54
S'<built-in method __subclasshook__ of type object>'
p55
sS'offset'
p56
S'None'
p57
sS'__unicode__'
p58
S'<built-in method __unicode__ of exceptions.SyntaxError object>'
p59
sS'__delattr__'
p60
S"<method-wrapper '__delattr__' of exceptions.SyntaxError object>"
p61
sS'__repr__'
p62
S"<method-wrapper '__repr__' of exceptions.SyntaxError object>"
p63
sS'__hash__'
p64
S"<method-wrapper '__hash__' of exceptions.SyntaxError object>"
p65
ssS'evalue'
p66
S'Field id_address does not belong to the table'
p67
sS'request'
p68
cgluon.html
XML_unpickle
p69
(S's\xc4p\x00\x00<div><table><tr><td style="font-weight:bold;vertical-align:top;">ajax</td><td style="vertical-align:top;">:</td><td><div>False</div></td></tr><tr><td style="font-weight:bold;vertical-align:top;">application</td><td style="vertical-align:top;">:</td><td><div>BootUp</div></td></tr><tr><td style="font-weight:bold;vertical-align:top;">args</td><td style="vertical-align:top;">:</td><td><div><table></table></div></td></tr><tr><td style="font-weight:bold;vertical-align:top;">cid</td><td style="vertical-align:top;">:</td><td><div>None</div></td></tr><tr><td style="font-weight:bold;vertical-align:top;">client</td><td style="vertical-align:top;">:</td><td><div>127.0.0.1</div></td></tr><tr><td style="font-weight:bold;vertical-align:top;">controller</td><td style="vertical-align:top;">:</td><td><div>default</div></td></tr><tr><td style="font-weight:bold;vertical-align:top;">cookies</td><td style="vertical-align:top;">:</td><td><div><table><tr><td style="font-weight:bold;vertical-align:top;">session_id_admin</td><td style="vertical-align:top;">:</td><td><div>127.0.0.1-b178edae-59da-47aa-a861-0852b70fc591<table><tr><td style="font-weight:bold;vertical-align:top;">comment</td><td style="vertical-align:top;">:</td><td><div></div></td></tr><tr><td style="font-weight:bold;vertical-align:top;">domain</td><td style="vertical-align:top;">:</td><td><div></div></td></tr><tr><td style="font-weight:bold;vertical-align:top;">expires</td><td style="vertical-align:top;">:</td><td><div></div></td></tr><tr><td style="font-weight:bold;vertical-align:top;">httponly</td><td style="vertical-align:top;">:</td><td><div></div></td></tr><tr><td style="font-weight:bold;vertical-align:top;">max-age</td><td style="vertical-align:top;">:</td><td><div></div></td></tr><tr><td style="font-weight:bold;vertical-align:top;">path</td><td style="vertical-align:top;">:</td><td><div></div></td></tr><tr><td style="font-weight:bold;vertical-align:top;">secure</td><td style="vertical-align:top;">:</td><td><div></div></td></tr><tr><td style="font-weight:bold;vertical-align:top;">version</td><td style="vertical-align:top;">:</td><td><div></div></td></tr></table></div></td></tr><tr><td style="font-weight:bold;vertical-align:top;">session_id_bootup</td><td style="vertical-align:top;">:</td><td><div>127.0.0.1-c1831e87-90e9-41ee-a07d-70a3a0482022<table><tr><td style="font-weight:bold;vertical-align:top;">comment</td><td style="vertical-align:top;">:</td><td><div></div></td></tr><tr><td style="font-weight:bold;vertical-align:top;">domain</td><td style="vertical-align:top;">:</td><td><div></div></td></tr><tr><td style="font-weight:bold;vertical-align:top;">expires</td><td style="vertical-align:top;">:</td><td><div></div></td></tr><tr><td style="font-weight:bold;vertical-align:top;">httponly</td><td style="vertical-align:top;">:</td><td><div></div></td></tr><tr><td style="font-weight:bold;vertical-align:top;">max-age</td><td style="vertical-align:top;">:</td><td><div></div></td></tr><tr><td style="font-weight:bold;vertical-align:top;">path</td><td style="vertical-align:top;">:</td><td><div></div></td></tr><tr><td style="font-weight:bold;vertical-align:top;">secure</td><td style="vertical-align:top;">:</td><td><div></div></td></tr><tr><td style="font-weight:bold;vertical-align:top;">version</td><td style="vertical-align:top;">:</td><td><div></div></td></tr></table></div></td></tr><tr><td style="font-weight:bold;vertical-align:top;">session_id_congowithbootstrap</td><td style="vertical-align:top;">:</td><td><div>127.0.0.1-fc8f33aa-b823-460e-9742-de84cdd633bf<table><tr><td style="font-weight:bold;vertical-align:top;">comment</td><td style="vertical-align:top;">:</td><td><div></div></td></tr><tr><td style="font-weight:bold;vertical-align:top;">domain</td><td style="vertical-align:top;">:</td><td><div></div></td></tr><tr><td style="font-weight:bold;vertical-align:top;">expires</td><td style="vertical-align:top;">:</td><td><div></div></td></tr><tr><td style="font-weight:bold;vertical-align:top;">httponly</td><td style="vertical-align:top;">:</td><td><div></div></td></tr><tr><td style="font-weight:bold;vertical-align:top;">max-age</td><td style="vertical-align:top;">:</td><td><div></div></td></tr><tr><td style="font-weight:bold;vertical-align:top;">path</td><td style="vertical-align:top;">:</td><td><div></div></td></tr><tr><td style="font-weight:bold;vertical-align:top;">secure</td><td style="vertical-align:top;">:</td><td><div></div></td></tr><tr><td style="font-weight:bold;vertical-align:top;">version</td><td style="vertical-align:top;">:</td><td><div></div></td></tr></table></div></td></tr><tr><td style="font-weight:bold;vertical-align:top;">session_id_temp</td><td style="vertical-align:top;">:</td><td><div>127.0.0.1-3b81e8eb-eb43-4c80-916c-6e17c6543212<table><tr><td style="font-weight:bold;vertical-align:top;">comment</td><td style="vertical-align:top;">:</td><td><div></div></td></tr><tr><td style="font-weight:bold;vertical-align:top;">domain</td><td style="vertical-align:top;">:</td><td><div></div></td></tr><tr><td style="font-weight:bold;vertical-align:top;">expires</td><td style="vertical-align:top;">:</td><td><div></div></td></tr><tr><td style="font-weight:bold;vertical-align:top;">httponly</td><td style="vertical-align:top;">:</td><td><div></div></td></tr><tr><td style="font-weight:bold;vertical-align:top;">max-age</td><td style="vertical-align:top;">:</td><td><div></div></td></tr><tr><td style="font-weight:bold;vertical-align:top;">path</td><td style="vertical-align:top;">:</td><td><div></div></td></tr><tr><td style="font-weight:bold;vertical-align:top;">secure</td><td style="vertical-align:top;">:</td><td><div></div></td></tr><tr><td style="font-weight:bold;vertical-align:top;">version</td><td style="vertical-align:top;">:</td><td><div></div></td></tr></table></div></td></tr><tr><td style="font-weight:bold;vertical-align:top;">session_id_welcome</td><td style="vertical-align:top;">:</td><td><div>127.0.0.1-f27f1940-8284-43ac-814b-def2a7b823dd<table><tr><td style="font-weight:bold;vertical-align:top;">comment</td><td style="vertical-align:top;">:</td><td><div></div></td></tr><tr><td style="font-weight:bold;vertical-align:top;">domain</td><td style="vertical-align:top;">:</td><td><div></div></td></tr><tr><td style="font-weight:bold;vertical-align:top;">expires</td><td style="vertical-align:top;">:</td><td><div></div></td></tr><tr><td style="font-weight:bold;vertical-align:top;">httponly</td><td style="vertical-align:top;">:</td><td><div></div></td></tr><tr><td style="font-weight:bold;vertical-align:top;">max-age</td><td style="vertical-align:top;">:</td><td><div></div></td></tr><tr><td style="font-weight:bold;vertical-align:top;">path</td><td style="vertical-align:top;">:</td><td><div></div></td></tr><tr><td style="font-weight:bold;vertical-align:top;">secure</td><td style="vertical-align:top;">:</td><td><div></div></td></tr><tr><td style="font-weight:bold;vertical-align:top;">version</td><td style="vertical-align:top;">:</td><td><div></div></td></tr></table></div></td></tr></table></div></td></tr><tr><td style="font-weight:bold;vertical-align:top;">env</td><td style="vertical-align:top;">:</td><td><div><table><tr><td style="font-weight:bold;vertical-align:top;">CONTENT_LENGTH</td><td style="vertical-align:top;">:</td><td><div>2328</div></td></tr><tr><td style="font-weight:bold;vertical-align:top;">CONTENT_TYPE</td><td style="vertical-align:top;">:</td><td><div>multipart/form-data; boundary=----WebKitFormBoundaryA3ccts9RbJziqFBg</div></td></tr><tr><td style="font-weight:bold;vertical-align:top;">HTTP_ACCEPT</td><td style="vertical-align:top;">:</td><td><div>text/html,application/xhtml+xml,application/xml;q=0.9,image/webp,*/*;q=0.8</div></td></tr><tr><td style="font-weight:bold;vertical-align:top;">HTTP_ACCEPT_ENCODING</td><td style="vertical-align:top;">:</td><td><div>gzip,deflate</div></td></tr><tr><td style="font-weight:bold;vertical-align:top;">HTTP_ACCEPT_LANGUAGE</td><td style="vertical-align:top;">:</td><td><div>en-GB,en-US;q=0.8,en;q=0.6</div></td></tr><tr><td style="font-weight:bold;vertical-align:top;">HTTP_CACHE_CONTROL</td><td style="vertical-align:top;">:</td><td><div>max-age=0</div></td></tr><tr><td style="font-weight:bold;vertical-align:top;">HTTP_CONNECTION</td><td style="vertical-align:top;">:</td><td><div>keep-alive</div></td></tr><tr><td style="font-weight:bold;vertical-align:top;">HTTP_CONTENT_LENGTH</td><td style="vertical-align:top;">:</td><td><div>2328</div></td></tr><tr><td style="font-weight:bold;vertical-align:top;">HTTP_CONTENT_TYPE</td><td style="vertical-align:top;">:</td><td><div>multipart/form-data; boundary=----WebKitFormBoundaryA3ccts9RbJziqFBg</div></td></tr><tr><td style="font-weight:bold;vertical-align:top;">HTTP_COOKIE</td><td style="vertical-align:top;">:</td><td><div>session_id_congowithbootstrap=127.0.0.1-fc8f33aa-b823-460e-9742-de84cdd633bf; session_id_welcome=127.0.0.1-f27f1940-8284-43ac-814b-def2a7b823dd; session_id_temp=127.0.0.1-3b81e8eb-eb43-4c80-916c-6e17c6543212; session_id_admin=127.0.0.1-b178edae-59da-47aa-a861-0852b70fc591; session_id_bootup=127.0.0.1-c1831e87-90e9-41ee-a07d-70a3a0482022</div></td></tr><tr><td style="font-weight:bold;vertical-align:top;">HTTP_HOST</td><td style="vertical-align:top;">:</td><td><div>127.0.0.1:8000</div></td></tr><tr><td style="font-weight:bold;vertical-align:top;">HTTP_ORIGIN</td><td style="vertical-align:top;">:</td><td><div>http://127.0.0.1:8000</div></td></tr><tr><td style="font-weight:bold;vertical-align:top;">HTTP_REFERER</td><td style="vertical-align:top;">:</td><td><div>http://127.0.0.1:8000/BootUp/default/register</div></td></tr><tr><td style="font-weight:bold;vertical-align:top;">HTTP_USER_AGENT</td><td style="vertical-align:top;">:</td><td><div>Mozilla/5.0 (Windows NT 6.3; WOW64) AppleWebKit/537.36 (KHTML, like Gecko) Chrome/38.0.2125.111 Safari/537.36</div></td></tr><tr><td style="font-weight:bold;vertical-align:top;">PATH_INFO</td><td style="vertical-align:top;">:</td><td><div>/BootUp/default/register</div></td></tr><tr><td style="font-weight:bold;vertical-align:top;">QUERY_STRING</td><td style="vertical-align:top;">:</td><td><div></div></td></tr><tr><td style="font-weight:bold;vertical-align:top;">REMOTE_ADDR</td><td style="vertical-align:top;">:</td><td><div>127.0.0.1</div></td></tr><tr><td style="font-weight:bold;vertical-align:top;">REMOTE_PORT</td><td style="vertical-align:top;">:</td><td><div>4728</div></td></tr><tr><td style="font-weight:bold;vertical-align:top;">REQUEST_METHOD</td><td style="vertical-align:top;">:</td><td><div>POST</div></td></tr><tr><td style="font-weight:bold;vertical-align:top;">SCRIPT_NAME</td><td style="vertical-align:top;">:</td><td><div></div></td></tr><tr><td style="font-weight:bold;vertical-align:top;">SERVER_NAME</td><td style="vertical-align:top;">:</td><td><div>RorysPC</div></td></tr><tr><td style="font-weight:bold;vertical-align:top;">SERVER_PORT</td><td style="vertical-align:top;">:</td><td><div>8000</div></td></tr><tr><td style="font-weight:bold;vertical-align:top;">SERVER_PROTOCOL</td><td style="vertical-align:top;">:</td><td><div>HTTP/1.1</div></td></tr><tr><td style="font-weight:bold;vertical-align:top;">SERVER_SOFTWARE</td><td style="vertical-align:top;">:</td><td><div>Rocket 1.2.6</div></td></tr><tr><td style="font-weight:bold;vertical-align:top;">app_folders</td><td style="vertical-align:top;">:</td><td><div>set([&#x27;C:\\\\Web2Py\\\\web2py_win\\\\web2py\\\\applications\\\\CongoWithBootstrap\\\\&#x27;, &#x27;C:\\\\Web2Py\\\\web2py_win\\\\web2py\\\\applications\\\\welcome\\\\&#x27;, &#x27;C:\\\\Web2Py\\\\web2py_win\\\\web2py\\\\applications\\\\Temp\\\\&#x27;, &#x27;C:\\\\Web2Py\\\\web2py_win\\\\web2py\\\\applications\\\\admin\\\\&#x27;, &#x27;C:\\\\Web2Py\\\\web2py_win\\\\web2py\\\\applications\\\\BootUp\\\\&#x27;])</div></td></tr><tr><td style="font-weight:bold;vertical-align:top;">applications_parent</td><td style="vertical-align:top;">:</td><td><div>C:\\Web2Py\\web2py_win\\web2py</div></td></tr><tr><td style="font-weight:bold;vertical-align:top;">cmd_args</td><td style="vertical-align:top;">:</td><td><div><table></table></div></td></tr><tr><td style="font-weight:bold;vertical-align:top;">cmd_options</td><td style="vertical-align:top;">:</td><td><div>&lt;Values at 0x2cca288: {&#x27;verbose&#x27;: False, &#x27;ip&#x27;: &#x27;127.0.0.1&#x27;, &#x27;debuglevel&#x27;: 30, &#x27;with_scheduler&#x27;: False, &#x27;ips&#x27;: [&#x27;192.168.0.5&#x27;], &#x27;shutdown_timeout&#x27;: 5, &#x27;taskbar&#x27;: False, &#x27;with_coverage&#x27;: False, &#x27;scheduler_groups&#x27;: None, &#x27;port&#x27;: 8000, &#x27;maxthreads&#x27;: None, &#x27;softcron&#x27;: False, &#x27;server_name&#x27;: &#x27;RorysPC&#x27;, &#x27;bpython&#x27;: False, &#x27;nogui&#x27;: False, &#x27;pid_filename&#x27;: &#x27;httpserver.pid&#x27;, &#x27;extcron&#x27;: False, &#x27;runcron&#x27;: False, &#x27;run_system_tests&#x27;: False, &#x27;test&#x27;: None, &#x27;folder&#x27;: &#x27;C:\\\\Web2Py\\\\web2py_win\\\\web2py&#x27;, &#x27;config&#x27;: &#x27;&#x27;, &#x27;minthreads&#x27;: None, &#x27;shell&#x27;: None, &#x27;run&#x27;: &#x27;&#x27;, &#x27;log_filename&#x27;: &#x27;httpserver.log&#x27;, &#x27;profiler_dir&#x27;: None, &#x27;args&#x27;: [&#x27;&#x27;], &#x27;socket_timeout&#x27;: 5, &#x27;ssl_ca_certificate&#x27;: None, &#x27;scheduler&#x27;: None, &#x27;interfaces&#x27;: None, &#x27;ssl_private_key&#x27;: &#x27;&#x27;, &#x27;gae&#x27;: None, &#x27;password&#x27;: &#x27;&lt;ask&gt;&#x27;, &#x27;request_queue_size&#x27;: 5, &#x27;ssl_certificate&#x27;: &#x27;&#x27;, &#x27;cronjob&#x27;: False, &#x27;numthreads&#x27;: None, &#x27;quiet&#x27;: False, &#x27;import_models&#x27;: False, &#x27;timeout&#x27;: 10, &#x27;plain&#x27;: False, &#x27;nobanner&#x27;: False}&gt;</div></td></tr><tr><td style="font-weight:bold;vertical-align:top;">content_length</td><td style="vertical-align:top;">:</td><td><div>2328</div></td></tr><tr><td style="font-weight:bold;vertical-align:top;">content_type</td><td style="vertical-align:top;">:</td><td><div>multipart/form-data; boundary=----WebKitFormBoundaryA3ccts9RbJziqFBg</div></td></tr><tr><td style="font-weight:bold;vertical-align:top;">db_sessions</td><td style="vertical-align:top;">:</td><td><div>set([])</div></td></tr><tr><td style="font-weight:bold;vertical-align:top;">debugging</td><td style="vertical-align:top;">:</td><td><div>False</div></td></tr><tr><td style="font-weight:bold;vertical-align:top;">gluon_parent</td><td style="vertical-align:top;">:</td><td><div>C:\\Web2Py\\web2py_win\\web2py</div></td></tr><tr><td style="font-weight:bold;vertical-align:top;">http_accept</td><td style="vertical-align:top;">:</td><td><div>text/html,application/xhtml+xml,application/xml;q=0.9,image/webp,*/*;q=0.8</div></td></tr><tr><td style="font-weight:bold;vertical-align:top;">http_accept_encoding</td><td style="vertical-align:top;">:</td><td><div>gzip,deflate</div></td></tr><tr><td style="font-weight:bold;vertical-align:top;">http_accept_language</td><td style="vertical-align:top;">:</td><td><div>en-GB,en-US;q=0.8,en;q=0.6</div></td></tr><tr><td style="font-weight:bold;vertical-align:top;">http_cache_control</td><td style="vertical-align:top;">:</td><td><div>max-age=0</div></td></tr><tr><td style="font-weight:bold;vertical-align:top;">http_connection</td><td style="vertical-align:top;">:</td><td><div>keep-alive</div></td></tr><tr><td style="font-weight:bold;vertical-align:top;">http_content_length</td><td style="vertical-align:top;">:</td><td><div>2328</div></td></tr><tr><td style="font-weight:bold;vertical-align:top;">http_content_type</td><td style="vertical-align:top;">:</td><td><div>multipart/form-data; boundary=----WebKitFormBoundaryA3ccts9RbJziqFBg</div></td></tr><tr><td style="font-weight:bold;vertical-align:top;">http_cookie</td><td style="vertical-align:top;">:</td><td><div>session_id_congowithbootstrap=127.0.0.1-fc8f33aa-b823-460e-9742-de84cdd633bf; session_id_welcome=127.0.0.1-f27f1940-8284-43ac-814b-def2a7b823dd; session_id_temp=127.0.0.1-3b81e8eb-eb43-4c80-916c-6e17c6543212; session_id_admin=127.0.0.1-b178edae-59da-47aa-a861-0852b70fc591; session_id_bootup=127.0.0.1-c1831e87-90e9-41ee-a07d-70a3a0482022</div></td></tr><tr><td style="font-weight:bold;vertical-align:top;">http_host</td><td style="vertical-align:top;">:</td><td><div>127.0.0.1:8000</div></td></tr><tr><td style="font-weight:bold;vertical-align:top;">http_origin</td><td style="vertical-align:top;">:</td><td><div>http://127.0.0.1:8000</div></td></tr><tr><td style="font-weight:bold;vertical-align:top;">http_referer</td><td style="vertical-align:top;">:</td><td><div>http://127.0.0.1:8000/BootUp/default/register</div></td></tr><tr><td style="font-weight:bold;vertical-align:top;">http_user_agent</td><td style="vertical-align:top;">:</td><td><div>Mozilla/5.0 (Windows NT 6.3; WOW64) AppleWebKit/537.36 (KHTML, like Gecko) Chrome/38.0.2125.111 Safari/537.36</div></td></tr><tr><td style="font-weight:bold;vertical-align:top;">is_jython</td><td style="vertical-align:top;">:</td><td><div>False</div></td></tr><tr><td style="font-weight:bold;vertical-align:top;">is_pypy</td><td style="vertical-align:top;">:</td><td><div>False</div></td></tr><tr><td style="font-weight:bold;vertical-align:top;">is_source</td><td style="vertical-align:top;">:</td><td><div>False</div></td></tr><tr><td style="font-weight:bold;vertical-align:top;">local_hosts</td><td style="vertical-align:top;">:</td><td><div><table><tr><td><div>::ffff:127.0.0.1</div></td></tr><tr><td><div>::1</div></td></tr><tr><td><div>fe80::20ac:3b5a:3f57:fffa%7</div></td></tr><tr><td><div>2001:0:5ef5:79fd:20ac:3b5a:3f57:fffa</div></td></tr><tr><td><div>fe80::4525:5167:23e5:dd66%4</div></td></tr><tr><td><div>RorysPC.Home</div></td></tr><tr><td><div>192.168.0.5</div></td></tr><tr><td><div>RorysPC</div></td></tr><tr><td><div>127.0.0.1</div></td></tr></table></div></td></tr><tr><td style="font-weight:bold;vertical-align:top;">path_info</td><td style="vertical-align:top;">:</td><td><div>/BootUp/default/register</div></td></tr><tr><td style="font-weight:bold;vertical-align:top;">query_string</td><td style="vertical-align:top;">:</td><td><div></div></td></tr><tr><td style="font-weight:bold;vertical-align:top;">remote_addr</td><td style="vertical-align:top;">:</td><td><div>127.0.0.1</div></td></tr><tr><td style="font-weight:bold;vertical-align:top;">remote_port</td><td style="vertical-align:top;">:</td><td><div>4728</div></td></tr><tr><td style="font-weight:bold;vertical-align:top;">request_method</td><td style="vertical-align:top;">:</td><td><div>POST</div></td></tr><tr><td style="font-weight:bold;vertical-align:top;">request_uri</td><td style="vertical-align:top;">:</td><td><div>/BootUp/default/register</div></td></tr><tr><td style="font-weight:bold;vertical-align:top;">script_name</td><td style="vertical-align:top;">:</td><td><div></div></td></tr><tr><td style="font-weight:bold;vertical-align:top;">server_name</td><td style="vertical-align:top;">:</td><td><div>RorysPC</div></td></tr><tr><td style="font-weight:bold;vertical-align:top;">server_port</td><td style="vertical-align:top;">:</td><td><div>8000</div></td></tr><tr><td style="font-weight:bold;vertical-align:top;">server_protocol</td><td style="vertical-align:top;">:</td><td><div>HTTP/1.1</div></td></tr><tr><td style="font-weight:bold;vertical-align:top;">server_software</td><td style="vertical-align:top;">:</td><td><div>Rocket 1.2.6</div></td></tr><tr><td style="font-weight:bold;vertical-align:top;">web2py_path</td><td style="vertical-align:top;">:</td><td><div>C:\\Web2Py\\web2py_win\\web2py</div></td></tr><tr><td style="font-weight:bold;vertical-align:top;">web2py_version</td><td style="vertical-align:top;">:</td><td><div>2.9.11-stable+timestamp.2014.09.15.23.35.11</div></td></tr><tr><td style="font-weight:bold;vertical-align:top;">wsgi.errors</td><td style="vertical-align:top;">:</td><td><div>&lt;open file &#x27;&lt;stderr&gt;&#x27;, mode &#x27;w&#x27; at 0x002B60D0&gt;</div></td></tr><tr><td style="font-weight:bold;vertical-align:top;">wsgi.file_wrapper</td><td style="vertical-align:top;">:</td><td><div>&lt;class wsgiref.util.FileWrapper at 0x0214FCA8&gt;</div></td></tr><tr><td style="font-weight:bold;vertical-align:top;">wsgi.input</td><td style="vertical-align:top;">:</td><td><div>&lt;socket._fileobject object at 0x04019E70&gt;</div></td></tr><tr><td style="font-weight:bold;vertical-align:top;">wsgi.multiprocess</td><td style="vertical-align:top;">:</td><td><div>False</div></td></tr><tr><td style="font-weight:bold;vertical-align:top;">wsgi.multithread</td><td style="vertical-align:top;">:</td><td><div>True</div></td></tr><tr><td style="font-weight:bold;vertical-align:top;">wsgi.run_once</td><td style="vertical-align:top;">:</td><td><div>False</div></td></tr><tr><td style="font-weight:bold;vertical-align:top;">wsgi.url_scheme</td><td style="vertical-align:top;">:</td><td><div>http</div></td></tr><tr><td style="font-weight:bold;vertical-align:top;">wsgi.version</td><td style="vertical-align:top;">:</td><td><div><table><tr><td><div>1</div></td></tr><tr><td><div>0</div></td></tr></table></div></td></tr><tr><td style="font-weight:bold;vertical-align:top;">wsgi_errors</td><td style="vertical-align:top;">:</td><td><div>&lt;open file &#x27;&lt;stderr&gt;&#x27;, mode &#x27;w&#x27; at 0x002B60D0&gt;</div></td></tr><tr><td style="font-weight:bold;vertical-align:top;">wsgi_file_wrapper</td><td style="vertical-align:top;">:</td><td><div>&lt;class wsgiref.util.FileWrapper at 0x0214FCA8&gt;</div></td></tr><tr><td style="font-weight:bold;vertical-align:top;">wsgi_input</td><td style="vertical-align:top;">:</td><td><div>&lt;socket._fileobject object at 0x04019E70&gt;</div></td></tr><tr><td style="font-weight:bold;vertical-align:top;">wsgi_multiprocess</td><td style="vertical-align:top;">:</td><td><div>False</div></td></tr><tr><td style="font-weight:bold;vertical-align:top;">wsgi_multithread</td><td style="vertical-align:top;">:</td><td><div>True</div></td></tr><tr><td style="font-weight:bold;vertical-align:top;">wsgi_run_once</td><td style="vertical-align:top;">:</td><td><div>False</div></td></tr><tr><td style="font-weight:bold;vertical-align:top;">wsgi_url_scheme</td><td style="vertical-align:top;">:</td><td><div>http</div></td></tr><tr><td style="font-weight:bold;vertical-align:top;">wsgi_version</td><td style="vertical-align:top;">:</td><td><div><table><tr><td><div>1</div></td></tr><tr><td><div>0</div></td></tr></table></div></td></tr></table></div></td></tr><tr><td style="font-weight:bold;vertical-align:top;">extension</td><td style="vertical-align:top;">:</td><td><div>html</div></td></tr><tr><td style="font-weight:bold;vertical-align:top;">folder</td><td style="vertical-align:top;">:</td><td><div>C:\\Web2Py\\web2py_win\\web2py\\applications\\BootUp\\</div></td></tr><tr><td style="font-weight:bold;vertical-align:top;">function</td><td style="vertical-align:top;">:</td><td><div>register</div></td></tr><tr><td style="font-weight:bold;vertical-align:top;">global_settings</td><td style="vertical-align:top;">:</td><td><div><table><tr><td style="font-weight:bold;vertical-align:top;">app_folders</td><td style="vertical-align:top;">:</td><td><div>set([&#x27;C:\\\\Web2Py\\\\web2py_win\\\\web2py\\\\applications\\\\CongoWithBootstrap\\\\&#x27;, &#x27;C:\\\\Web2Py\\\\web2py_win\\\\web2py\\\\applications\\\\welcome\\\\&#x27;, &#x27;C:\\\\Web2Py\\\\web2py_win\\\\web2py\\\\applications\\\\Temp\\\\&#x27;, &#x27;C:\\\\Web2Py\\\\web2py_win\\\\web2py\\\\applications\\\\admin\\\\&#x27;, &#x27;C:\\\\Web2Py\\\\web2py_win\\\\web2py\\\\applications\\\\BootUp\\\\&#x27;])</div></td></tr><tr><td style="font-weight:bold;vertical-align:top;">applications_parent</td><td style="vertical-align:top;">:</td><td><div>C:\\Web2Py\\web2py_win\\web2py</div></td></tr><tr><td style="font-weight:bold;vertical-align:top;">cmd_args</td><td style="vertical-align:top;">:</td><td><div><table></table></div></td></tr><tr><td style="font-weight:bold;vertical-align:top;">cmd_options</td><td style="vertical-align:top;">:</td><td><div>&lt;Values at 0x2cca288: {&#x27;verbose&#x27;: False, &#x27;ip&#x27;: &#x27;127.0.0.1&#x27;, &#x27;debuglevel&#x27;: 30, &#x27;with_scheduler&#x27;: False, &#x27;ips&#x27;: [&#x27;192.168.0.5&#x27;], &#x27;shutdown_timeout&#x27;: 5, &#x27;taskbar&#x27;: False, &#x27;with_coverage&#x27;: False, &#x27;scheduler_groups&#x27;: None, &#x27;port&#x27;: 8000, &#x27;maxthreads&#x27;: None, &#x27;softcron&#x27;: False, &#x27;server_name&#x27;: &#x27;RorysPC&#x27;, &#x27;bpython&#x27;: False, &#x27;nogui&#x27;: False, &#x27;pid_filename&#x27;: &#x27;httpserver.pid&#x27;, &#x27;extcron&#x27;: False, &#x27;runcron&#x27;: False, &#x27;run_system_tests&#x27;: False, &#x27;test&#x27;: None, &#x27;folder&#x27;: &#x27;C:\\\\Web2Py\\\\web2py_win\\\\web2py&#x27;, &#x27;config&#x27;: &#x27;&#x27;, &#x27;minthreads&#x27;: None, &#x27;shell&#x27;: None, &#x27;run&#x27;: &#x27;&#x27;, &#x27;log_filename&#x27;: &#x27;httpserver.log&#x27;, &#x27;profiler_dir&#x27;: None, &#x27;args&#x27;: [&#x27;&#x27;], &#x27;socket_timeout&#x27;: 5, &#x27;ssl_ca_certificate&#x27;: None, &#x27;scheduler&#x27;: None, &#x27;interfaces&#x27;: None, &#x27;ssl_private_key&#x27;: &#x27;&#x27;, &#x27;gae&#x27;: None, &#x27;password&#x27;: &#x27;&lt;ask&gt;&#x27;, &#x27;request_queue_size&#x27;: 5, &#x27;ssl_certificate&#x27;: &#x27;&#x27;, &#x27;cronjob&#x27;: False, &#x27;numthreads&#x27;: None, &#x27;quiet&#x27;: False, &#x27;import_models&#x27;: False, &#x27;timeout&#x27;: 10, &#x27;plain&#x27;: False, &#x27;nobanner&#x27;: False}&gt;</div></td></tr><tr><td style="font-weight:bold;vertical-align:top;">db_sessions</td><td style="vertical-align:top;">:</td><td><div>set([])</div></td></tr><tr><td style="font-weight:bold;vertical-align:top;">debugging</td><td style="vertical-align:top;">:</td><td><div>False</div></td></tr><tr><td style="font-weight:bold;vertical-align:top;">gluon_parent</td><td style="vertical-align:top;">:</td><td><div>C:\\Web2Py\\web2py_win\\web2py</div></td></tr><tr><td style="font-weight:bold;vertical-align:top;">is_jython</td><td style="vertical-align:top;">:</td><td><div>False</div></td></tr><tr><td style="font-weight:bold;vertical-align:top;">is_pypy</td><td style="vertical-align:top;">:</td><td><div>False</div></td></tr><tr><td style="font-weight:bold;vertical-align:top;">is_source</td><td style="vertical-align:top;">:</td><td><div>False</div></td></tr><tr><td style="font-weight:bold;vertical-align:top;">local_hosts</td><td style="vertical-align:top;">:</td><td><div><table><tr><td><div>::ffff:127.0.0.1</div></td></tr><tr><td><div>::1</div></td></tr><tr><td><div>fe80::20ac:3b5a:3f57:fffa%7</div></td></tr><tr><td><div>2001:0:5ef5:79fd:20ac:3b5a:3f57:fffa</div></td></tr><tr><td><div>fe80::4525:5167:23e5:dd66%4</div></td></tr><tr><td><div>RorysPC.Home</div></td></tr><tr><td><div>192.168.0.5</div></td></tr><tr><td><div>RorysPC</div></td></tr><tr><td><div>127.0.0.1</div></td></tr></table></div></td></tr><tr><td style="font-weight:bold;vertical-align:top;">web2py_version</td><td style="vertical-align:top;">:</td><td><div>2.9.11-stable+timestamp.2014.09.15.23.35.11</div></td></tr></table></div></td></tr><tr><td style="font-weight:bold;vertical-align:top;">is_https</td><td style="vertical-align:top;">:</td><td><div>False</div></td></tr><tr><td style="font-weight:bold;vertical-align:top;">is_local</td><td style="vertical-align:top;">:</td><td><div>True</div></td></tr><tr><td style="font-weight:bold;vertical-align:top;">is_restful</td><td style="vertical-align:top;">:</td><td><div>False</div></td></tr><tr><td style="font-weight:bold;vertical-align:top;">is_sheduler</td><td style="vertical-align:top;">:</td><td><div>None</div></td></tr><tr><td style="font-weight:bold;vertical-align:top;">is_shell</td><td style="vertical-align:top;">:</td><td><div>None</div></td></tr><tr><td style="font-weight:bold;vertical-align:top;">now</td><td style="vertical-align:top;">:</td><td><div>datetime.datetime(2014, 11, 19, 16, 14, 36, 524000)</div></td></tr><tr><td style="font-weight:bold;vertical-align:top;">raw_args</td><td style="vertical-align:top;">:</td><td><div></div></td></tr><tr><td style="font-weight:bold;vertical-align:top;">raw_extension</td><td style="vertical-align:top;">:</td><td><div>None</div></td></tr><tr><td style="font-weight:bold;vertical-align:top;">url</td><td style="vertical-align:top;">:</td><td><div>/BootUp/default/register</div></td></tr><tr><td style="font-weight:bold;vertical-align:top;">utcnow</td><td style="vertical-align:top;">:</td><td><div>datetime.datetime(2014, 11, 19, 16, 14, 36, 524000)</div></td></tr><tr><td style="font-weight:bold;vertical-align:top;">uuid</td><td style="vertical-align:top;">:</td><td><div>BootUp/127.0.0.1.2014-11-19.16-14-36.35aee6e8-ed41-410b-81f6-1038037d9f01</div></td></tr><tr><td style="font-weight:bold;vertical-align:top;">wsgi</td><td style="vertical-align:top;">:</td><td><div>&lt;gluon.main.LazyWSGI object at 0x0718FF50&gt;</div></td></tr></table></div>'
tRp70
sS'frames'
p71
(lp72
(dp73
S'file'
p74
S'C:\\Web2Py\\web2py_win\\web2py\\gluon\\restricted.py'
p75
sS'dump'
p76
(dp77
sS'lnum'
p78
I224
sS'lines'
p79
(dp80
sS'call'
p81
S"(code='# -*- coding: utf-8 -*-\\n# this file is released ...ules)\\n\\nresponse._vars=response._caller(register)\\n', environment={'A': <class 'gluon.html.A'>, 'ANY_OF': <class 'gluon.validators.ANY_OF'>, 'ASSIGNJS': <function ASSIGNJS>, 'Auth': <class 'gluon.tools.Auth'>, 'B': <class 'gluon.html.B'>, 'BEAUTIFY': <class 'gluon.html.BEAUTIFY'>, 'BODY': <class 'gluon.html.BODY'>, 'BR': <class 'gluon.html.BR'>, 'BUTTON': <class 'gluon.html.BUTTON'>, 'CAT': <class 'gluon.html.CAT'>, ...}, layer=r'C:\\Web2Py\\web2py_win\\web2py\\applications\\BootUp\\controllers/default.py')"
p82
sS'func'
p83
S'restricted'
p84
sa(dp85
g74
S'C:\\Web2Py\\web2py_win\\web2py\\applications\\BootUp\\controllers\\default.py'
p86
sg76
(dp87
sg78
I217
sg79
(dp88
I206
S'def api():'
p89
sI207
S'    """'
p90
sI208
S'    this is example of API with access control'
p91
sI209
S'    WEB2PY provides Hypermedia API (Collection+JSON) Experimental'
p92
sI210
S'    """'
p93
sI211
S'    from gluon.contrib.hypermedia import Collection'
p94
sI212
S'    rules = {'
p95
sI213
S"        '<tablename>': {'GET':{},'POST':{},'PUT':{},'DELETE':{}},"
p96
sI214
S'        }'
p97
sI215
S'    return Collection(db).process(request,response,rules)'
p98
ssg81
S'()'
p99
sg83
S'<module>'
p100
sa(dp101
g74
S'C:\\Web2Py\\web2py_win\\web2py\\gluon\\globals.py'
p102
sg76
(dp103
sg78
I392
sg79
(dp104
sg81
S'(f=<function register>)'
p105
sg83
S'<lambda>'
p106
sa(dp107
g74
S'C:\\Web2Py\\web2py_win\\web2py\\applications\\BootUp\\controllers\\default.py'
p108
sg76
(dp109
S'default'
p110
S'undefined'
p111
sS'app'
p112
g111
sS'http'
p113
g111
sS'global user'
p114
S'<function user>'
p115
sS'global register'
p116
S'<function register>'
p117
ssg78
I159
sg79
(dp118
I160
S''
sI161
S'        auth.login_bare(request.vars.username, request.vars.password)'
p119
sI162
S"        response.flash = 'accepted'"
p120
sI163
S''
sI154
S''
sI155
S''
sI156
S''
sI157
S'        db.auth_user.insert(username = request.vars.username, password = db.auth_user.password.validate(request.vars.password)[0],'
p121
sI158
S'                       first_name = request.vars.first_name, last_name = request.vars.last_name, birthdate = dob, bank_details_id = bank_details,'
p122
sI159
S'                       id_address = address)'
p123
ssg81
S'()'
p124
sg83
S'register'
p125
sa(dp126
g74
S'C:\\Web2Py\\web2py_win\\web2py\\gluon\\dal.py'
p127
sg76
(dp128
sg78
I9317
sg79
(dp129
sg81
S"(self=<Table auth_user (id,first_name,last_name,email,...tration_id,birthdate,address_id,bank_details_id)>, **fields={'bank_details_id': 1L, 'birthdate': '28/06/1994', 'first_name': 'Rory', 'id_address': 1L, 'last_name': 'Simpson', 'password': <gluon.validators.LazyCrypt object>, 'username': 'Rory'})"
p130
sg83
S'insert'
p131
sa(dp132
g74
S'C:\\Web2Py\\web2py_win\\web2py\\gluon\\dal.py'
p133
sg76
(dp134
sg78
I9237
sg79
(dp135
sg81
S"(self=<Table auth_user (id,first_name,last_name,email,...tration_id,birthdate,address_id,bank_details_id)>, fields={'bank_details_id': 1L, 'birthdate': '28/06/1994', 'first_name': 'Rory', 'id_address': 1L, 'last_name': 'Simpson', 'password': <gluon.validators.LazyCrypt object>, 'username': 'Rory'}, update=False)"
p136
sg83
S'_listify'
p137
sasS'pyver'
p138
S'Python 2.7.6: C:\\Web2Py\\web2py_win\\web2py\\web2py.exe (prefix: )'
p139
sS'session'
p140
g69
(S's8\x01\x00\x00<div><table><tr><td style="font-weight:bold;vertical-align:top;">last_orderby</td><td style="vertical-align:top;">:</td><td><div>None</div></td></tr><tr><td style="font-weight:bold;vertical-align:top;">last_query</td><td style="vertical-align:top;">:</td><td><div>db.project.id&gt;0</div></td></tr></table></div>'
tRp141
sS'etype'
p142
S"<type 'exceptions.SyntaxError'>"
p143
sS'date'
p144
S'Wed Nov 19 16:14:36 2014'
p145
sS'response'
p146
g69
(S's\x9f2\x00\x00<div><table><tr><td style="font-weight:bold;vertical-align:top;">body</td><td style="vertical-align:top;">:</td><td><div>&lt;cStringIO.StringO object at 0x071958C0&gt;</div></td></tr><tr><td style="font-weight:bold;vertical-align:top;">cookies</td><td style="vertical-align:top;">:</td><td><div><table><tr><td style="font-weight:bold;vertical-align:top;">session_id_bootup</td><td style="vertical-align:top;">:</td><td><div>127.0.0.1-c1831e87-90e9-41ee-a07d-70a3a0482022<table><tr><td style="font-weight:bold;vertical-align:top;">comment</td><td style="vertical-align:top;">:</td><td><div></div></td></tr><tr><td style="font-weight:bold;vertical-align:top;">domain</td><td style="vertical-align:top;">:</td><td><div></div></td></tr><tr><td style="font-weight:bold;vertical-align:top;">expires</td><td style="vertical-align:top;">:</td><td><div></div></td></tr><tr><td style="font-weight:bold;vertical-align:top;">httponly</td><td style="vertical-align:top;">:</td><td><div></div></td></tr><tr><td style="font-weight:bold;vertical-align:top;">max-age</td><td style="vertical-align:top;">:</td><td><div></div></td></tr><tr><td style="font-weight:bold;vertical-align:top;">path</td><td style="vertical-align:top;">:</td><td><div>/</div></td></tr><tr><td style="font-weight:bold;vertical-align:top;">secure</td><td style="vertical-align:top;">:</td><td><div></div></td></tr><tr><td style="font-weight:bold;vertical-align:top;">version</td><td style="vertical-align:top;">:</td><td><div></div></td></tr></table></div></td></tr></table></div></td></tr><tr><td style="font-weight:bold;vertical-align:top;">delimiters</td><td style="vertical-align:top;">:</td><td><div><table><tr><td><div>{{</div></td></tr><tr><td><div>}}</div></td></tr></table></div></td></tr><tr><td style="font-weight:bold;vertical-align:top;">files</td><td style="vertical-align:top;">:</td><td><div><table></table></div></td></tr><tr><td style="font-weight:bold;vertical-align:top;">flash</td><td style="vertical-align:top;">:</td><td><div>Success!</div></td></tr><tr><td style="font-weight:bold;vertical-align:top;">form_label_separator</td><td style="vertical-align:top;">:</td><td><div>: </div></td></tr><tr><td style="font-weight:bold;vertical-align:top;">formstyle</td><td style="vertical-align:top;">:</td><td><div>table3cols</div></td></tr><tr><td style="font-weight:bold;vertical-align:top;">generic_patterns</td><td style="vertical-align:top;">:</td><td><div><table><tr><td><div>*</div></td></tr></table></div></td></tr><tr><td style="font-weight:bold;vertical-align:top;">google_analytics_id</td><td style="vertical-align:top;">:</td><td><div>None</div></td></tr><tr><td style="font-weight:bold;vertical-align:top;">headers</td><td style="vertical-align:top;">:</td><td><div><table><tr><td style="font-weight:bold;vertical-align:top;">X-Powered-By</td><td style="vertical-align:top;">:</td><td><div>web2py</div></td></tr></table></div></td></tr><tr><td style="font-weight:bold;vertical-align:top;">logo</td><td style="vertical-align:top;">:</td><td><div><a class="brand" href="http://www.web2py.com/"><b>web<span>2</span>py</b>&trade;&nbsp;</a></div></td></tr><tr><td style="font-weight:bold;vertical-align:top;">menu</td><td style="vertical-align:top;">:</td><td><div><table><tr><td><div><table><tr><td><div>Home</div></td></tr><tr><td><div>False</div></td></tr><tr><td><div>/BootUp/default/index</div></td></tr><tr><td><div><table></table></div></td></tr></table></div></td></tr><tr><td><div><table><tr><td><div><span class="highlighted">web2py</span></div></td></tr><tr><td><div>False</div></td></tr><tr><td><div>http://web2py.com</div></td></tr><tr><td><div><table><tr><td><div><table><tr><td><div>My Sites</div></td></tr><tr><td><div>False</div></td></tr><tr><td><div>/admin/default/site</div></td></tr></table></div></td></tr><tr><td><div><table><tr><td><div>This App</div></td></tr><tr><td><div>False</div></td></tr><tr><td><div>/admin/default/design/BootUp</div></td></tr><tr><td><div>[(&lt;lazyT &#x27;Controller&#x27;&gt;, False, &#x27;/admin/default/edit/BootUp/controllers/default.py&#x27;), (&lt;lazyT &#x27;View&#x27;&gt;, False, &#x27;/admin/default/edit/BootUp/views/default/register.html&#x27;), (&lt;lazyT &#x27;Layout&#x27;&gt;, False, &#x27;/admin/default/edit/BootUp/views/layout.html&#x27;), (&lt;lazyT &#x27;Stylesheet&#x27;&gt;, False, &#x27;/admin/default/edit/BootUp/static/css/web2py.css&#x27;), (&lt;lazyT &#x27;DB Model&#x27;&gt;, False, &#x27;/admin/default/edit/BootUp/models/db.py&#x27;), (&lt;lazyT &#x27;Menu Model&#x27;&gt;, False, &#x27;/admin/default/edit/BootUp/models/menu.py&#x27;), (&lt;lazyT &#x27;Database&#x27;&gt;, False, &#x27;/BootUp/appadmin/index&#x27;), (&lt;lazyT &#x27;Errors&#x27;&gt;, False, &#x27;/admin/default/errors/BootUp&#x27;), (&lt;lazyT &#x27;About&#x27;&gt;, False, &#x27;/admin/default/about/BootUp&#x27;)]</div></td></tr></table></div></td></tr><tr><td><div><table><tr><td><div>web2py.com</div></td></tr><tr><td><div>False</div></td></tr><tr><td><div>http://www.web2py.com</div></td></tr><tr><td><div>[(&lt;lazyT &#x27;Download&#x27;&gt;, False, &#x27;http://www.web2py.com/examples/default/download&#x27;), (&lt;lazyT &#x27;Support&#x27;&gt;, False, &#x27;http://www.web2py.com/examples/default/support&#x27;), (&lt;lazyT &#x27;Demo&#x27;&gt;, False, &#x27;http://web2py.com/demo_admin&#x27;), (&lt;lazyT &#x27;Quick Examples&#x27;&gt;, False, &#x27;http://web2py.com/examples/default/examples&#x27;), (&lt;lazyT &#x27;FAQ&#x27;&gt;, False, &#x27;http://web2py.com/AlterEgo&#x27;), (&lt;lazyT &#x27;Videos&#x27;&gt;, False, &#x27;http://www.web2py.com/examples/default/videos/&#x27;), (&lt;lazyT &#x27;Free Applications&#x27;&gt;, False, &#x27;http://web2py.com/appliances&#x27;), (&lt;lazyT &#x27;Plugins&#x27;&gt;, False, &#x27;http://web2py.com/plugins&#x27;), (&lt;lazyT &#x27;Layouts&#x27;&gt;, False, &#x27;http://web2py.com/layouts&#x27;), (&lt;lazyT &#x27;Recipes&#x27;&gt;, False, &#x27;http://web2pyslices.com/&#x27;), (&lt;lazyT &#x27;Semantic&#x27;&gt;, False, &#x27;http://web2py.com/semantic&#x27;)]</div></td></tr></table></div></td></tr><tr><td><div><table><tr><td><div>Documentation</div></td></tr><tr><td><div>False</div></td></tr><tr><td><div>http://www.web2py.com/book</div></td></tr><tr><td><div>[(&lt;lazyT &#x27;Preface&#x27;&gt;, False, &#x27;http://www.web2py.com/book/default/chapter/00&#x27;), (&lt;lazyT &#x27;Introduction&#x27;&gt;, False, &#x27;http://www.web2py.com/book/default/chapter/01&#x27;), (&lt;lazyT &#x27;Python&#x27;&gt;, False, &#x27;http://www.web2py.com/book/default/chapter/02&#x27;), (&lt;lazyT &#x27;Overview&#x27;&gt;, False, &#x27;http://www.web2py.com/book/default/chapter/03&#x27;), (&lt;lazyT &#x27;The Core&#x27;&gt;, False, &#x27;http://www.web2py.com/book/default/chapter/04&#x27;), (&lt;lazyT &#x27;The Views&#x27;&gt;, False, &#x27;http://www.web2py.com/book/default/chapter/05&#x27;), (&lt;lazyT &#x27;Database&#x27;&gt;, False, &#x27;http://www.web2py.com/book/default/chapter/06&#x27;), (&lt;lazyT &#x27;Forms and Validators&#x27;&gt;, False, &#x27;http://www.web2py.com/book/default/chapter/07&#x27;), (&lt;lazyT &#x27;Email and SMS&#x27;&gt;, False, &#x27;http://www.web2py.com/book/default/chapter/08&#x27;), (&lt;lazyT &#x27;Access Control&#x27;&gt;, False, &#x27;http://www.web2py.com/book/default/chapter/09&#x27;), (&lt;lazyT &#x27;Services&#x27;&gt;, False, &#x27;http://www.web2py.com/book/default/chapter/10&#x27;), (&lt;lazyT &#x27;Ajax Recipes&#x27;&gt;, False, &#x27;http://www.web2py.com/book/default/chapter/11&#x27;), (&lt;lazyT &#x27;Components and Plugins&#x27;&gt;, False, &#x27;http://www.web2py.com/book/default/chapter/12&#x27;), (&lt;lazyT &#x27;Deployment Recipes&#x27;&gt;, False, &#x27;http://www.web2py.com/book/default/chapter/13&#x27;), (&lt;lazyT &#x27;Other Recipes&#x27;&gt;, False, &#x27;http://www.web2py.com/book/default/chapter/14&#x27;), (&lt;lazyT &#x27;Buy this book&#x27;&gt;, False, &#x27;http://stores.lulu.com/web2py&#x27;)]</div></td></tr></table></div></td></tr><tr><td><div><table><tr><td><div>Community</div></td></tr><tr><td><div>False</div></td></tr><tr><td><div>None</div></td></tr><tr><td><div>[(&lt;lazyT &#x27;Groups&#x27;&gt;, False, &#x27;http://www.web2py.com/examples/default/usergroups&#x27;), (&lt;lazyT &#x27;Twitter&#x27;&gt;, False, &#x27;http://twitter.com/web2py&#x27;), (&lt;lazyT &#x27;Live Chat&#x27;&gt;, False, &#x27;http://webchat.freenode.net/?channels=web2py&#x27;)]</div></td></tr></table></div></td></tr><tr><td><div><table><tr><td><div>Plugins</div></td></tr><tr><td><div>False</div></td></tr><tr><td><div>None</div></td></tr><tr><td><div>[(&#x27;plugin_wiki&#x27;, False, &#x27;http://web2py.com/examples/default/download&#x27;), (&lt;lazyT &#x27;Other Plugins&#x27;&gt;, False, &#x27;http://web2py.com/plugins&#x27;), (&lt;lazyT &#x27;Layout Plugins&#x27;&gt;, False, &#x27;http://web2py.com/layouts&#x27;)]</div></td></tr></table></div></td></tr></table></div></td></tr></table></div></td></tr></table></div></td></tr><tr><td style="font-weight:bold;vertical-align:top;">meta</td><td style="vertical-align:top;">:</td><td><div><table><tr><td style="font-weight:bold;vertical-align:top;">author</td><td style="vertical-align:top;">:</td><td><div>Your Name &lt;you@example.com&gt;</div></td></tr><tr><td style="font-weight:bold;vertical-align:top;">generator</td><td style="vertical-align:top;">:</td><td><div>Web2py Web Framework</div></td></tr><tr><td style="font-weight:bold;vertical-align:top;">keywords</td><td style="vertical-align:top;">:</td><td><div>web2py, python, framework</div></td></tr></table></div></td></tr><tr><td style="font-weight:bold;vertical-align:top;">models_to_run</td><td style="vertical-align:top;">:</td><td><div><table><tr><td><div>^\\w+\\.py$</div></td></tr><tr><td><div>^default/\\w+\\.py$</div></td></tr><tr><td><div>^default/register/\\w+\\.py$</div></td></tr></table></div></td></tr><tr><td style="font-weight:bold;vertical-align:top;">postprocessing</td><td style="vertical-align:top;">:</td><td><div><table></table></div></td></tr><tr><td style="font-weight:bold;vertical-align:top;">session_client</td><td style="vertical-align:top;">:</td><td><div>127.0.0.1</div></td></tr><tr><td style="font-weight:bold;vertical-align:top;">session_cookie_compression_level</td><td style="vertical-align:top;">:</td><td><div>None</div></td></tr><tr><td style="font-weight:bold;vertical-align:top;">session_cookie_expires</td><td style="vertical-align:top;">:</td><td><div>None</div></td></tr><tr><td style="font-weight:bold;vertical-align:top;">session_cookie_key</td><td style="vertical-align:top;">:</td><td><div>None</div></td></tr><tr><td style="font-weight:bold;vertical-align:top;">session_data_name</td><td style="vertical-align:top;">:</td><td><div>session_data_bootup</div></td></tr><tr><td style="font-weight:bold;vertical-align:top;">session_file</td><td style="vertical-align:top;">:</td><td><div>&lt;open file &#x27;C:\\\\Web2Py\\\\web2py_win\\\\web2py\\\\applications\\\\BootUp\\\\sessions\\\\15d\\\\0be\\\\127.0.0.1-c1831e87-90e9-41ee-a07d-70a3a0482022&#x27;, mode &#x27;rb+&#x27; at 0x04415E38&gt;</div></td></tr><tr><td style="font-weight:bold;vertical-align:top;">session_filename</td><td style="vertical-align:top;">:</td><td><div>C:\\Web2Py\\web2py_win\\web2py\\applications\\BootUp\\sessions\\127.0.0.1-c1831e87-90e9-41ee-a07d-70a3a0482022</div></td></tr><tr><td style="font-weight:bold;vertical-align:top;">session_hash</td><td style="vertical-align:top;">:</td><td><div>ffc7a979a3101c59cf891f173fee54a8</div></td></tr><tr><td style="font-weight:bold;vertical-align:top;">session_id</td><td style="vertical-align:top;">:</td><td><div>127.0.0.1-c1831e87-90e9-41ee-a07d-70a3a0482022</div></td></tr><tr><td style="font-weight:bold;vertical-align:top;">session_id_name</td><td style="vertical-align:top;">:</td><td><div>session_id_bootup</div></td></tr><tr><td style="font-weight:bold;vertical-align:top;">session_locked</td><td style="vertical-align:top;">:</td><td><div>True</div></td></tr><tr><td style="font-weight:bold;vertical-align:top;">session_masterapp</td><td style="vertical-align:top;">:</td><td><div>BootUp</div></td></tr><tr><td style="font-weight:bold;vertical-align:top;">session_new</td><td style="vertical-align:top;">:</td><td><div>False</div></td></tr><tr><td style="font-weight:bold;vertical-align:top;">session_storage_type</td><td style="vertical-align:top;">:</td><td><div>file</div></td></tr><tr><td style="font-weight:bold;vertical-align:top;">status</td><td style="vertical-align:top;">:</td><td><div>200</div></td></tr><tr><td style="font-weight:bold;vertical-align:top;">subtitle</td><td style="vertical-align:top;">:</td><td><div></div></td></tr><tr><td style="font-weight:bold;vertical-align:top;">title</td><td style="vertical-align:top;">:</td><td><div>Bootup</div></td></tr><tr><td style="font-weight:bold;vertical-align:top;">view</td><td style="vertical-align:top;">:</td><td><div>default/register.html</div></td></tr></table></div>'
tRp147
sS'locals'
p148
(dp149
S'name'
p150
S"'id_address'"
p151
sS'fields'
p152
S"{'bank_details_id': 1L, 'birthdate': '28/06/1994', 'first_name': 'Rory', 'id_address': 1L, 'last_name': 'Simpson', 'password': <gluon.validators.LazyCrypt object>, 'username': 'Rory'}"
p153
sS'self'
p154
S'<Table auth_user (id,first_name,last_name,email,...tration_id,birthdate,address_id,bank_details_id)>'
p155
sS'update'
p156
S'False'
p157
sS'value'
p158
S"'Rory'"
p159
sS'field'
p160
S'<gluon.dal.Field object>'
p161
sS'new_fields'
p162
S"{'username': (<gluon.dal.Field object>, 'Rory')}"
p163
sssS'traceback'
p164
S'Traceback (most recent call last):\n  File "gluon/restricted.py", line 224, in restricted\n  File "C:\\Web2Py\\web2py_win\\web2py\\applications\\BootUp\\controllers/default.py", line 217, in <module>\n  File "gluon/globals.py", line 392, in <lambda>\n  File "C:\\Web2Py\\web2py_win\\web2py\\applications\\BootUp\\controllers/default.py", line 159, in register\n    id_address = address)\n  File "gluon/dal.py", line 9317, in insert\n  File "gluon/dal.py", line 9237, in _listify\nSyntaxError: Field id_address does not belong to the table\n'
p165
s.