(dp1
S'output'
p2
S"<class 'pysqlite2.dbapi2.OperationalError'> no such table: auth_user"
p3
sS'layer'
p4
S'/usr/userfs/r/rs1019/iapt/web2py/applications/BootUp/controllers/profile.py'
p5
sS'code'
p6
S'\n\nCOUNTRIES=( \'United Kingdom\', \'United States\', \'Afghanistan\', \'Albania\', \'Algeria\', \'Andorra\', \'Angola\', \'Antigua and Barbuda\', \'Argentina\', \'Armenia\', \'Australia\', \'Austria\', \'Azerbaijan\', \'Bahamas\', \'Bahrain\', \'Bangladesh\', \'Barbados\', \'Belarus\', \'Belgium\', \'Belize\', \'Benin\', \'Bhutan\', \'Bolivia\', \'Bosnia and Herzegovina\', \'Botswana\', \'Brazil\', \'Brunei\', \'Bulgaria\', \'Burkina Faso\', \'Burundi\', \'Cambodia\', \'Cameroon\', \'Canada\', \'Cape Verde\', \'Central African Republic\', \'Chad\', \'Chile\', \'China\', \'Colombia\', \'Comoros\', \'Congo\', \'Costa Rica\', \'Ivory Coast\', \'Croatia\', \'Cuba\', \'Cyprus\', \'Czech Republic\', \'Denmark\', \'Djibouti\', \'Dominica\', \'Dominican Republic\', \'East Timor\', \'Ecuador\', \'Egypt\', \'El Salvador\', \'Equatorial Guinea\', \'Eritrea\', \'Estonia\', \'Ethiopia\', \'Fiji\', \'Finland\', \'France\', \'Gabon\', \'Gambia\', \'Georgia\', \'Germany\', \'Ghana\', \'Greece\', \'Grenada\', \'Guatemala\', \'Guinea\', \'Guinea-Bissau\', \'Guyana\', \'Haiti\', \'Honduras\', \'Hong Kong\', \'Hungary\', \'Iceland\', \'India\', \'Indonesia\', \'Iran\', \'Iraq\', \'Ireland\', \'Israel\', \'Italy\', \'Jamaica\', \'Japan\', \'Jordan\', \'Kazakhstan\', \'Kenya\', \'Kiribati\', \'North Korea\',\'South Korea\', \'Kuwait\', \'Kyrgyzstan\', \'Laos\', \'Latvia\', \'Lebanon\', \'Lesotho\', \'Liberia\', \'Libya\', \'Liechtenstein\', \'Lithuania\', \'Luxembourg\', \'FYROM\', \'Madagascar\', \'Malawi\', \'Malaysia\', \'Maldives\', \'Mali\', \'Malta\', \'Marshall Islands\', \'Mauritania\', \'Mauritius\', \'Mexico\', \'Micronesia\', \'Moldova\', \'Monaco\', \'Mongolia\', \'Montenegro\', \'Morocco\', \'Mozambique\', \'Myanmar\', \'Namibia\', \'Nauru\', \'Nepal\', \'Netherlands\', \'New Zealand\', \'Nicaragua\', \'Niger\', \'Nigeria\', \'Norway\', \'Oman\', \'Pakistan\', \'Palau\', \'Palestine\', \'Panama\', \'Papua New Guinea\', \'Paraguay\', \'Peru\', \'Philippines\', \'Poland\', \'Portugal\', \'Puerto Rico\', \'Qatar\', \'Romania\', \'Russia\', \'Rwanda\', \'Saint Kitts and Nevis\', \'Saint Lucia\', \'Saint Vincent and the Grenadines\', \'Samoa\', \'San Marino\', \'Sao Tome and Principe\', \'Saudi Arabia\', \'Senegal\', \'Serbia and Montenegro\', \'Seychelles\', \'Sierra Leone\', \'Singapore\', \'Slovakia\', \'Slovenia\', \'Solomon Islands\', \'Somalia\', \'South Africa\', \'Spain\', \'Sri Lanka\', \'Sudan\', \'Suriname\', \'Swaziland\', \'Sweden\', \'Switzerland\', \'Syria\', \'Taiwan\', \'Tajikistan\', \'Tanzania\', \'Thailand\', \'Togo\', \'Tonga\', \'Trinidad and Tobago\', \'Tunisia\', \'Turkey\', \'Turkmenistan\', \'Tuvalu\', \'Uganda\', \'Ukraine\', \'United Arab Emirates\', \'Uruguay\', \'Uzbekistan\', \'Vanuatu\', \'Vatican City\', \'Venezuela\', \'Vietnam\', \'Yemen\', \'Zambia\', \'Zimbabwe\', \'Other\')\nyears = []\nmonths = [ \'01\', \'02\', \'03\', \'04\', \'05\', \'06\', \'07\', \'08\', \'09\', \'10\', \'11\', \'12\' ]\n\nfor i in xrange(100):\n    if i < 10:\n        number = \'0\' + str(i)\n    else:\n        number = str(i)\n\n    years.append(number)\n\n\n\n@auth.requires_login(otherwise=URL(\'default\',\'login\'))\ndef profile():\n\n    user = (db(db.auth_user.id == auth._get_user_id()).select()).first()\n\n    number_of_projects = len(db(db.project.username == auth._get_user_id()).select())\n    number_of_pledges = len(db(db.pledges.username == auth._get_user_id()).select())\n\n\n    return dict(user=user, number_of_projects=number_of_projects, number_of_pledges=number_of_pledges )\n\n@auth.requires_login(otherwise=URL(\'default\',\'login\'))\ndef projects():\n\n    user = (db(db.auth_user.id == auth._get_user_id()).select()).first()\n\n    open_for_pledges_projects = db((db.project.username == auth._get_user_id()) & (db.project.status  == "Open for Pledges")).select()\n    not_available_projects = db((db.project.username == auth._get_user_id()) & (db.project.status  == "Not Available")).select()\n    funded_projects = db((db.project.username == auth._get_user_id()) & (db.project.status  == "Funded")).select()\n    not_funded_projects = db((db.project.username == auth._get_user_id()) & (db.project.status  == "Not Funded")).select()\n\n\n    \n    return dict(user=user, open_for_pledges_projects = open_for_pledges_projects, not_available_projects = not_available_projects,\n                funded_projects = funded_projects, not_funded_projects = not_funded_projects)\n\n@auth.requires_login(otherwise=URL(\'default\',\'login\'))\ndef pledges():\n\n    user = (db(db.auth_user.id == auth._get_user_id()).select()).first()\n\n\n\n    return dict(user=user)\n\n@auth.requires_login(otherwise=URL(\'default\',\'login\'))\ndef information():\n\n    user = (db(db.auth_user.id == auth._get_user_id()).select()).first()\n    bank_details = db(db.bank_details.id == user.bank_details_id).select().first()\n    address = db(db.address.id == user.address_id).select().first()\n    bank_address = db(db.address.id == bank_details.address_id).select().first()\n\n    return dict(user=user,  bank_details = bank_details, address=address, bank_address=bank_address)\n\n\n@auth.requires_login(otherwise=URL(\'default\',\'login\'))\ndef create():\n\n\n\n    options = [\'Art\', \'Comics\', \'Crafts\', \'Fashion\', \'Film\', \'Games\', \'Music\', \'Photography\', \'Technology\']\n\n\n    form= FORM(FIELDSET(\n\n                        DIV(LABEL(\'Project Title:\', _for=\'project_title\'),\n                            INPUT(_id=\'project_title\', _name=\'project_title\', _type=\'text\', _class=\'span4\',requires=IS_NOT_EMPTY(error_message=T("Field cannot be left empty"))),\n\n                            LABEL(\'Short Project Description:\', _for=\'short_project_description\'),\n                            TEXTAREA(_id=\'short_project_description\', _name=\'short_project_description\', _cols = \'50\', _rows = \'5\', _class=\'span6\',requires=[IS_NOT_EMPTY(error_message=T("Field cannot be left empty")), IS_LENGTH(120, error_message=T("Must be at most 120 characters"))]),\n\n                            LABEL(\'Category:\', _for=\'category\'),\n                            SELECT(*options, _name=\'category\', _id=\'category\', requires= [IS_IN_SET(options, error_message=T("Category from list must be chosen"))]),\n\n                             LABEL(\'Project Image:\', _for=\'image\'),\n                            INPUT(_id=\'image\', _name=\'image\', _type=\'file\', _class=\'span4\',requires=IS_NOT_EMPTY(error_message=T("Field cannot be left empty")))\n\n                            ,_class=\'controls control-group\'),\n\n\n                            DIV(LABEL(\'Funding Goal (in GBPs):\', _for=\'funding_goal\'),\n                            INPUT(_id=\'funding_goal\', _name=\'funding_goal\', _type=\'text\', _class=\'span4\',requires=[IS_NOT_EMPTY(error_message=T("Field cannot be left empty")), IS_INT_IN_RANGE(0, 1000000000, error_message=T("Must be a whole number between \xc2\xa30 and \xc2\xa31000000000"))]),\n\n                            LABEL(\'Long Description of Project Goals:\', _for=\'long_description\'),\n                            TEXTAREA(_id=\'long_description\', _name=\'long_description\',_cols = \'50\', _rows = \'10\', _class=\'span6\',requires=IS_NOT_EMPTY(error_message=T("Field cannot be left empty"))),\n\n                            LABEL(\'Project Story:\', _for=\'project_story\'),\n                            TEXTAREA(_id=\'project_story\', _name=\'project_story\',_cols = \'50\', _rows = \'10\', _class=\'span6\',requires=IS_NOT_EMPTY(error_message=T("Field cannot be left empty")))\n\n                            ,_class=\'controls control-group\'),\n\n\n\n                            DIV(\n                                LEGEND(\'Pledges\'),\n\n                                DIV(\n                                    LABEL(\'Pledge 1:\'),\n                                    INPUT(_id=\'pledge_amount1\', _name=\'pledge_amount1\', _type=\'text\', _placeholder = "\xc2\xa3", _class=\'span2\',requires=[IS_NOT_EMPTY(error_message=T("Field cannot be left empty")), IS_INT_IN_RANGE(0, 1000000000, error_message=T("Must be a whole number between \xc2\xa30 and \xc2\xa31000000000"))]),\n                                    TEXTAREA(_placeholder = \'Reward\', _id=\'pledge_reward1\', _name=\'pledge_reward1\',_cols = \'50\', _rows = \'5\', _class=\'span5\', requires=IS_NOT_EMPTY(error_message=T("Field cannot be left empty")))\n                                , _class=\'controls controls-group\'),\n\n\n                                DIV(\n                                    LABEL(\'Pledge 2:\'),\n                                    INPUT(_id=\'pledge_amount2\', _name=\'pledge_amount2\', _type=\'text\', _placeholder = "\xc2\xa3", _class=\'span2\',requires=[IS_NOT_EMPTY(error_message=T("Field cannot be left empty")), IS_INT_IN_RANGE(0, 1000000000, error_message=T("Must be a whole number between \xc2\xa30 and \xc2\xa31000000000"))]),\n                                    TEXTAREA(_placeholder = \'Reward\', _id=\'pledge_reward2\', _name=\'pledge_reward2\',_cols = \'50\', _rows = \'5\', _class=\'span5\',requires=IS_NOT_EMPTY(error_message=T("Field cannot be left empty")))\n                                , _class=\'controls controls-group\'),\n\n                                DIV(\n                                    LABEL(\'Pledge 3:\'),\n                                    INPUT(_id=\'pledge_amount3\', _name=\'pledge_amount3\', _type=\'text\', _placeholder = "\xc2\xa3", _class=\'span2\',requires=[IS_NOT_EMPTY(error_message=T("Field cannot be left empty")), IS_INT_IN_RANGE(0, 1000000000, error_message=T("Must be a whole number between \xc2\xa30 and \xc2\xa31000000000"))]),\n                                    TEXTAREA(_placeholder = \'Reward\', _id=\'pledge_reward3\', _name=\'pledge_reward3\',_cols = \'50\', _rows = \'5\', _class=\'span5\',requires=IS_NOT_EMPTY(error_message=T("Field cannot be left empty")))\n                                , _class=\'controls controls-group\'),\n\n                                DIV(\n                                    LABEL(\'Pledge 4:\'),\n                                    INPUT(_id=\'pledge_amount4\', _name=\'pledge_amount4\', _type=\'text\', _placeholder = "\xc2\xa3", _class=\'span2\',requires=[IS_NOT_EMPTY(error_message=T("Field cannot be left empty")), IS_INT_IN_RANGE(0, 1000000000, error_message=T("Must be a whole number between \xc2\xa30 and \xc2\xa31000000000"))]),\n                                    TEXTAREA(_placeholder = \'Reward\', _id=\'pledge_reward4\', _name=\'pledge_reward4\',_cols = \'50\', _rows = \'5\', _class=\'span5\',requires=IS_NOT_EMPTY(error_message=T("Field cannot be left empty")))\n                                , _class=\'controls controls-group\'),\n\n                                DIV(\n                                    LABEL(\'Pledge 5:\'),\n                                    INPUT(_id=\'pledge_amount5\', _name=\'pledge_amount5\', _type=\'text\', _placeholder = "\xc2\xa3", _class=\'span2\',requires=[IS_NOT_EMPTY(error_message=T("Field cannot be left empty")), IS_INT_IN_RANGE(0, 1000000000, error_message=T("Must be a whole number between \xc2\xa30 and \xc2\xa31000000000"))]),\n                                    TEXTAREA(_placeholder = \'Reward\', _id=\'pledge_reward5\', _name=\'pledge_reward5\',_cols = \'50\', _rows = \'5\', _class=\'span5\',requires=IS_NOT_EMPTY(error_message=T("Field cannot be left empty")))\n                                , _class=\'controls controls-group\')\n\n\n                            ,_class=\'controls control-group\'),\n\n\n                         INPUT(_type=\'submit\', _class=\'btn btn-primary btn-large\', _value=\'Create Project\')\n\n\n    ))\n\n    if form.process().accepted:\n        project = db.project.insert(username = auth._get_user_id, short_description = request.vars.short_project_description,\n                                    status=\'Not Available\', image = request.vars.image, category = request.vars.category,\n                                    total_raised = 0, story = request.vars.project_story, time_opened_for_pledges = request.now,\n                                    funding_goal = int(request.vars.funding_goal), title = request.vars.project_title,\n                                    long_description = request.vars.long_description)\n\n\n        db.pledge_levels.insert(project_id = project, amount = int(request.vars.pledge_amount1), reward = request.vars.pledge_reward1)\n        db.pledge_levels.insert(project_id = project, amount = int(request.vars.pledge_amount2), reward = request.vars.pledge_reward2)\n        db.pledge_levels.insert(project_id = project, amount = int(request.vars.pledge_amount3), reward = request.vars.pledge_reward3)\n        db.pledge_levels.insert(project_id = project, amount = int(request.vars.pledge_amount4), reward = request.vars.pledge_reward4)\n        db.pledge_levels.insert(project_id = project, amount = int(request.vars.pledge_amount5), reward = request.vars.pledge_reward5)\n\n        redirect(URL(\'projects\'))\n\n\n\n    user = (db(db.auth_user.id == auth._get_user_id()).select()).first()\n\n\n    return dict(user=user, form=form)\n\n@auth.requires_login(otherwise=URL(\'default\',\'login\'))\ndef change_password():\n    form = FORM(FIELDSET(\n                        LEGEND(\'Change Password\'),\n                        DIV(\n                            LABEL(\'New Password:\', _for=\'new_password\'),INPUT(_id=\'new_password\', _name=\'new_password\', _type=\'password\', _class=\'span4\',requires=IS_NOT_EMPTY(error_message=T("Field cannot be left empty"))),\n                            LABEL(\'Confirm New Password:\', _for=\'confirm_new_password\'),INPUT(_id=\'confirm_new_password\', _name=\'confirm_new_password\', _type=\'password\', _class=\'span4\'\n                            , requires=[IS_EQUAL_TO(request.vars.confirm_new_password, error_message=T("Passwords do not match")), IS_NOT_EMPTY(error_message=T("Field cannot be left empty"))]),\n                            _class=\'controls control-group\'),\n\n                        INPUT(_type=\'submit\', _class=\'btn btn-primary\', _value=\'Change Password\')\n    ))\n\n    if form.process().accepted:\n\n        user = db(db.auth_user.id == auth._get_user_id()).select().first()\n        user.update_record(password = db.auth_user.password.validate(form.vars.new_password)[0])\n\n        response.flash = DIV(\'Password has been successfully changed\', _class="alert alert-success")\n\n    elif form.errors:\n         response.flash = DIV(\'Form not filled out successfully\', _class="alert alert-error")\n\n    user = (db(db.auth_user.id == auth._get_user_id()).select()).first()\n\n\n    return dict(form = form, user = user)\n\n@auth.requires_login(otherwise=URL(\'default\',\'login\'))\ndef edit_information():\n\n    user = (db(db.auth_user.id == auth._get_user_id()).select()).first()\n    bank_details = db(db.bank_details.id == user.bank_details_id).select().first()\n    address = db(db.address.id == user.address_id).select().first()\n    bank_address = db(db.address.id == bank_details.address_id).select().first()\n\n    form= FORM(FIELDSET(\n\n                        LEGEND(\'Personal Information\'),\n                        DIV(LABEL(\'First Name:\', _for=\'first_name\'),INPUT(_id=\'first_name\', _name=\'first_name\', _type=\'text\', _class=\'span4\',requires=IS_NOT_EMPTY(error_message=T("Field cannot be left empty"))),\n                            LABEL(\'Last Name:\', _for=\'last_name\'),INPUT(_id=\'last_name\', _name=\'last_name\', _type=\'text\', _class=\'span4\',requires=IS_NOT_EMPTY(error_message=T("Field cannot be left empty")))\n                            ,_class=\'controls control-group\'),\n\n\n                        DIV( LABEL(\'Date of Birth:\'),\n                             INPUT( _name=\'dob\', _type=\'date\', _class=\'span4\', _placeholder=\'yyyy\',requires=IS_NOT_EMPTY(error_message=T("Field cannot be left empty")))\n                             ,_class="controls controls-row"),\n\n\n                        LEGEND(\'Home Address\'),\n                        DIV(LABEL(\'Street:\', _for=\'street\'),INPUT(_id=\'street\', _name=\'street\', _type=\'text\', _class=\'span4\',requires=IS_NOT_EMPTY(error_message=T("Field cannot be left empty"))),\n                            LABEL(\'City:\', _for=\'city\'),INPUT(_id=\'city\', _name=\'city\', _type=\'text\', _class=\'span4\',requires=IS_NOT_EMPTY(error_message=T("Field cannot be left empty"))),\n                            LABEL(\'Postcode:\', _for=\'postcode\'),INPUT(_id=\'postcode\', _name=\'postcode\', _type=\'text\', _class=\'span4\',requires=[IS_NOT_EMPTY(error_message=T("Field cannot be left empty")),\n                            IS_MATCH(\'^[A-Z0-9]{4} [A-Z0-9]{3}$\', error_message="Postcode is not valid" )]),\n                            LABEL(\'Country:\', _for=\'country\'),SELECT(*COUNTRIES, _id=\'country\', _name=\'country\',requires=[IS_NOT_EMPTY(error_message=T("Field cannot be left empty")), IS_IN_SET(COUNTRIES)])\n                            ,_class=\'controls control-group\'),\n\n                        LEGEND(\'Billing Information\'),\n                        DIV(LABEL(\'Card Number:\', _for=\'card_number\'),INPUT(_id=\'card_number\', _name=\'card_number\', _type=\'text\', _class=\'span4\', requires=[IS_NOT_EMPTY(error_message=T("Field cannot be left empty")),\n                            IS_LENGTH(minsize=12, maxsize=12, error_message="Card number must be 12 digits long"), IS_MATCH(\'^[0-9]{12,12}$\', error_message="Card number must be 12 digits long" )]),\n                            LABEL(\'Security Code:\', _for=\'security_code\'),INPUT(_id=\'security_code\', _name=\'security_code\', _type=\'text\', _class=\'span4\',requires=[IS_NOT_EMPTY(error_message=T("Field cannot be left empty")),\n                            IS_LENGTH(minsize=3, maxsize=3, error_message="Security code contain 3 numbers"), IS_MATCH(\'^[0-9]{3}$\', error_message=\'Security code must contain 3 numbers\')])\n                            ,_class=\'controls control-group\'),\n\n                        DIV(\n                            LABEL(\'Expiry Date:\'),\n                            SELECT(*months, _value=\'mm\', _name=\'expiry_date_month\', _id=\'expiry_date_month_edit\'),\n                            SPAN(\' / \'),\n                            SELECT(*years, _value=\'yy\', _name=\'expiry_date_year\', _id=\'expiry_date_year_edit\')\n                            , _class=\'controls controls-row\'),\n\n                        LEGEND(\'Billing Address\'),\n                        DIV(LABEL(INPUT(_id=\'billing_checkbox\', _name=\'billing_checkbox\', _value=\'yes\', _onclick=\'javascript:toggleAddressAvailibility();\', _type=\'checkbox\' ), \'Same as Home Address\',_class=\'checkbox\'),\n                            DIV(LABEL(\'Street:\', _for=\'billing_street\'),INPUT( _name=\'billing_street\', _type=\'text\', _class=\'span4\'), _id=\'billing_street\'),\n                            DIV(LABEL(\'City:\', _for=\'billing_city\'),INPUT( _name=\'billing_city\', _type=\'text\', _class=\'span4\'), _id=\'billing_city\'),\n                            DIV(LABEL(\'Postcode:\', _for=\'billing_postcode\'),INPUT( _name=\'billing_postcode\', _type=\'text\', _class=\'span4\'), _id=\'billing_postcode\'),\n                            DIV(LABEL(\'Country:\', _for=\'billing_country\' ),INPUT( _name=\'billing_country\', _type=\'text\', _class=\'span4\'), _id=\'billing_country\')\n                            ,_class=\'controls control-group last_form_section\'),\n\n                         INPUT(_type=\'submit\', _class=\'btn btn-primary btn-large\', _value=\'Confirm Changes\')\n\n    ))\n\n    form.vars.first_name = user.first_name\n    form.vars.last_name = user.last_name\n    form.vars.dob = user.birthdate\n    form.vars.street = address.street\n    form.vars.city = address.city\n    form.vars.country = address.country\n    form.vars.postcode = address.postcode\n    form.vars.card_number = bank_details.card_number\n    form.vars.security_code = bank_details.security_code\n\n    expiry_date = bank_details.expiry_date.partition("/")\n\n    form.vars.expiry_date_month = expiry_date[0]\n    form.vars.expiry_date_year = expiry_date[2]\n    form.vars.billing_street = bank_address.street\n    form.vars.billing_city = bank_address.city\n    form.vars.billing_country = bank_address.country\n    form.vars.billing_postcode = bank_address.postcode\n\n\n    if form.process().accepted:\n\n        new_home_address_was_added = False\n\n        ##UPDATE Personal Info\n        if request.vars.first_name != user.first_name:\n            user.update_record(first_name = request.vars.first_name)\n\n        if request.vars.last_name != user.last_name:\n            user.update_record(last_name = request.vars.last_name)\n\n        if request.vars.dob != user.birthdate:\n            user.update_record(birthdate= request.vars.dob)\n\n        ## UPDATE address\n\n        if (user.address_id == bank_details.address_id):\n            number_of_banks_with_same_address_limit = 1\n        else:\n            number_of_banks_with_same_address_limit = 0\n\n        number_of_users_using_the_same_address = len(db(db.auth_user.address_id == user.address_id).select())\n        number_of_bank_details_using_the_same_address = len(db(db.bank_details.address_id == user.address_id).select())\n\n        if (number_of_users_using_the_same_address > 1) or (number_of_bank_details_using_the_same_address >  number_of_banks_with_same_address_limit):\n\n            if request.vars.street != address.street or request.vars.city != address.city or request.vars.country != address.country or request.vars.postcode != address.postcode:\n                new_address_id = db.address.insert(street = request.vars.street, city = request.vars.city, country = request.vars.country, postcode = request.vars.postcode)\n                user.update_record(address_id = new_address_id)\n                new_home_address_was_added = True\n\n\n\n        else:\n\n            if request.vars.street != address.street:\n                address.update_record(street = request.vars.street)\n\n            if request.vars.city != address.city:\n                address.update_record(city = request.vars.city)\n\n            if request.vars.country != address.country:\n                address.update_record(country = request.vars.country)\n\n            if request.vars.postcode != address.postcode:\n                address.update_record(postcode = request.vars.postcode)\n\n\n        ## UPDATE BANK DETAILS\n        number_of_users_using_the_same_card = len(db(db.auth_user.bank_details_id == user.bank_details_id).select())\n\n        expiry_date = request.vars.expiry_date_month + "/" + request.vars.expiry_date_year\n\n        if number_of_users_using_the_same_card > 1:\n\n            if request.vars.card_number != bank_details.card_number or request.vars.security_code != bank_details.security_code or expiry_date != bank_details.expiry_date:\n                new_bank_details_id = db.bank_details.insert(card_number = request.vars.card_number, security_code = request.vars.security_code,\n                                    expiry_date = expiry_date)\n                user.update_record(bank_details_id = new_bank_details_id)\n\n\n\n        else:\n\n            if request.vars.card_number != bank_details.card_number:\n                bank_details.update_record(card_number= request.vars.card_number)\n\n            if request.vars.security_code != bank_details.security_code:\n                bank_details.update_record(security_code = request.vars.security_code)\n\n            if expiry_date != bank_details.expiry_date:\n                bank_details.update_record(expiry_date = expiry_date)\n\n\n        ## UPDATE BANK_ADDRESS\n\n        if request.vars.billing_checkbox ==\'yes\':\n\n            if new_home_address_was_added:\n                bank_details.update_record(address_id = new_address_id)\n\n            else:\n                bank_details.update_record(address_id = address.id)\n\n        else:\n\n            if (request.vars.street == request.vars.billing_street) and (request.vars.city == request.vars.billing_city) and \\\n            (request.vars.country == request.vars.billing_country) and (request.vars.postcode == request.vars.billing_postcode):\n\n                if new_home_address_was_added:\n                    bank_details.update_record(address_id = new_address_id)\n\n                else:\n                    bank_details.update_record(address_id = address.id)\n\n            else:\n\n                if (user.address_id == bank_details.address_id):\n                    number_of_users_with_same_address_limit = 1\n                else:\n                    number_of_users_with_same_address_limit = 0\n\n                number_of_users_using_the_same_address = len(db(db.auth_user.address_id == bank_address.id).select())\n                number_of_bank_details_using_the_same_address = len(db(db.bank_details.address_id == bank_address.id).select())\n\n                if (number_of_users_using_the_same_address > number_of_users_with_same_address_limit) or (number_of_bank_details_using_the_same_address > 1):\n                     if request.vars.billing_street != bank_address.street or request.vars.billing_city != bank_address.city or\\\n                        request.vars.billing_country != bank_address.country or request.vars.billing_postcode != bank_address.postcode:\n\n                        new_bank_address_id = db.address.insert(street = request.vars.billing_street, city = request.vars.billing_city,\n                                             country = request.vars.billing_country, postcode = request.vars.billing_postcode)\n\n                        bank_details.update_record(address_id = new_bank_address_id)\n\n                else:\n\n                    if request.vars.billing_street != bank_address.street:\n                        address.update_record(street = request.vars.billing_street)\n\n                    if request.vars.billing_city != bank_address.city:\n                        address.update_record(city = request.vars.billing_city)\n\n                    if request.vars.billing_country != bank_address.country:\n                        address.update_record(country = request.vars.billing_country)\n\n                    if request.vars.billing_postcode != bank_address.postcode:\n                        address.update_record(postcode = request.vars.billing_postcode)\n\n\n\n\n\n\n        redirect(URL(\'information\'))\n\n        #if (request.vars.expiry_date_month != expiry_date[0]) or (request.vars.expiry_date_year != expiry_date[2]):\n\n\n\n\n\n\n    return dict(user = user, form = form)\n\n\ndef edit_information_validation(form):\n    if form.vars.billing_checkbox != "yes":\n        if form.vars.billing_street =="":\n            form.errors.billing_street = "Street must be entered"\n\n        if form.vars.billing_city =="":\n            form.errors.billing_city = "City must be entered"\n\n        if form.vars.billing_country =="":\n            form.errors.billing_country = "Country must be entered"\n\n        if form.vars.billing_postcode =="":\n            form.errors.billing_postcode = "Postcode must be entered"\n\n    if form.vars.expiry_date_month not in months or form.vars.expiry_date_year not in years:\n        form.errors.expiry_date_year = "Expiry Date must be entered"\n\n@auth.requires_login(otherwise=URL(\'default\',\'login\'))\ndef view_project():\n\n    project = None\n    project_id = request.args(0)\n    user = (db(db.auth_user.id == auth._get_user_id()).select()).first()\n    projects = db((db.project.username == auth._get_user_id) & (db.project.id == project_id) ).select()\n\n    if len(projects) < 1:\n        response.flash = "You dont have permissions to view this project\'s information"\n\n    else:\n        project = projects.first()\n\n\n    return dict(project = project, user = user)\n\ndef delete_pledge():\n    db(db.pledge_levels.id == request.vars.id).delete()\n    redirect(URL(\'rewards\', args=request.vars.project_id), client_side=True)\n\n\ndef rewards():\n\n    form=None\n    pledge_levels = None\n    project_id = request.args(0)\n    user = (db(db.auth_user.id == auth._get_user_id()).select()).first()\n    projects = db((db.project.username == auth._get_user_id) & (db.project.id == project_id) ).select()\n\n    if len(projects) < 1:\n        response.flash = "You dont have permissions to view this project\'s information"\n\n    else:\n        project = projects.first()\n\n\n        form = FORM(DIV(INPUT(_id=\'pledge_amount\', _name=\'pledge_amount\', _type=\'text\', _placeholder = "\xc2\xa3", _class=\'span2\',requires=[IS_NOT_EMPTY(error_message=T("Field cannot be left empty")), IS_INT_IN_RANGE(0, 1000000000, error_message=T("Must be a whole number between \xc2\xa30 and \xc2\xa31000000000"))]),\n                TEXTAREA(_placeholder = \'Reward\', _id=\'pledge_reward\', _name=\'pledge_reward\',_cols = \'50\', _rows = \'5\', _class=\'span5\', requires=IS_NOT_EMPTY(error_message=T("Field cannot be left empty"))),\n               _class="controls control-group" ), INPUT(_type=\'submit\', _class=\'btn btn-primary btn-large\', _value=\'Add Reward\'))\n\n        if form.process().accepted:\n            db.pledge_levels.insert(project_id = project.id, amount = int(request.vars.pledge_amount), reward = request.vars.pledge_reward)\n\n\n        pledge_levels = db(db.pledge_levels.project_id == project_id).select(orderby=db.pledge_levels.amount)\n\n    return dict(pledge_levels = pledge_levels, form = form, user = user, project=project)\n\n\n\n\n\nresponse._vars=response._caller(rewards)\n'
p7
sS'snapshot'
p8
(dp9
S'exception'
p10
(dp11
S'__module__'
p12
S"'pysqlite2.dbapi2'"
p13
sS'__getslice__'
p14
S"<method-wrapper '__getslice__' of OperationalError object>"
p15
sS'__str__'
p16
S"<method-wrapper '__str__' of OperationalError object>"
p17
sS'__reduce__'
p18
S'<built-in method __reduce__ of OperationalError object>'
p19
sS'__dict__'
p20
S'{}'
p21
sS'__sizeof__'
p22
S'<built-in method __sizeof__ of OperationalError object>'
p23
sS'__weakref__'
p24
S'None'
p25
sS'__init__'
p26
S"<method-wrapper '__init__' of OperationalError object>"
p27
sS'__setattr__'
p28
S"<method-wrapper '__setattr__' of OperationalError object>"
p29
sS'__reduce_ex__'
p30
S'<built-in method __reduce_ex__ of OperationalError object>'
p31
sS'__new__'
p32
S'<built-in method __new__ of type object>'
p33
sS'__format__'
p34
S'<built-in method __format__ of OperationalError object>'
p35
sS'__class__'
p36
S"<class 'pysqlite2.dbapi2.OperationalError'>"
p37
sS'__doc__'
p38
S'None'
p39
sS'__getitem__'
p40
S"<method-wrapper '__getitem__' of OperationalError object>"
p41
sS'__setstate__'
p42
S'<built-in method __setstate__ of OperationalError object>'
p43
sS'__getattribute__'
p44
S"<method-wrapper '__getattribute__' of OperationalError object>"
p45
sS'args'
p46
S"('no such table: auth_user',)"
p47
sS'__subclasshook__'
p48
S'<built-in method __subclasshook__ of type object>'
p49
sS'__unicode__'
p50
S'<built-in method __unicode__ of OperationalError object>'
p51
sS'__delattr__'
p52
S"<method-wrapper '__delattr__' of OperationalError object>"
p53
sS'__repr__'
p54
S"<method-wrapper '__repr__' of OperationalError object>"
p55
sS'__hash__'
p56
S"<method-wrapper '__hash__' of OperationalError object>"
p57
ssS'evalue'
p58
S'no such table: auth_user'
p59
sS'request'
p60
cgluon.html
XML_unpickle
p61
(S'sPi\x00\x00<div><table><tr><td style="font-weight:bold;vertical-align:top;">ajax</td><td style="vertical-align:top;">:</td><td><div>False</div></td></tr><tr><td style="font-weight:bold;vertical-align:top;">application</td><td style="vertical-align:top;">:</td><td><div>BootUp</div></td></tr><tr><td style="font-weight:bold;vertical-align:top;">args</td><td style="vertical-align:top;">:</td><td><div><table><tr><td><div>7</div></td></tr></table></div></td></tr><tr><td style="font-weight:bold;vertical-align:top;">cid</td><td style="vertical-align:top;">:</td><td><div>None</div></td></tr><tr><td style="font-weight:bold;vertical-align:top;">client</td><td style="vertical-align:top;">:</td><td><div>127.0.0.1</div></td></tr><tr><td style="font-weight:bold;vertical-align:top;">controller</td><td style="vertical-align:top;">:</td><td><div>profile</div></td></tr><tr><td style="font-weight:bold;vertical-align:top;">cookies</td><td style="vertical-align:top;">:</td><td><div><table><tr><td style="font-weight:bold;vertical-align:top;">session_id_admin</td><td style="vertical-align:top;">:</td><td><div>127.0.0.1-31a3f438-c79a-4c07-aad5-bdb59e7b8090<table><tr><td style="font-weight:bold;vertical-align:top;">comment</td><td style="vertical-align:top;">:</td><td><div></div></td></tr><tr><td style="font-weight:bold;vertical-align:top;">domain</td><td style="vertical-align:top;">:</td><td><div></div></td></tr><tr><td style="font-weight:bold;vertical-align:top;">expires</td><td style="vertical-align:top;">:</td><td><div></div></td></tr><tr><td style="font-weight:bold;vertical-align:top;">httponly</td><td style="vertical-align:top;">:</td><td><div></div></td></tr><tr><td style="font-weight:bold;vertical-align:top;">max-age</td><td style="vertical-align:top;">:</td><td><div></div></td></tr><tr><td style="font-weight:bold;vertical-align:top;">path</td><td style="vertical-align:top;">:</td><td><div></div></td></tr><tr><td style="font-weight:bold;vertical-align:top;">secure</td><td style="vertical-align:top;">:</td><td><div></div></td></tr><tr><td style="font-weight:bold;vertical-align:top;">version</td><td style="vertical-align:top;">:</td><td><div></div></td></tr></table></div></td></tr><tr><td style="font-weight:bold;vertical-align:top;">session_id_bootup</td><td style="vertical-align:top;">:</td><td><div>127.0.0.1-f1ec12bf-3c97-4f3e-a239-b604f7945776<table><tr><td style="font-weight:bold;vertical-align:top;">comment</td><td style="vertical-align:top;">:</td><td><div></div></td></tr><tr><td style="font-weight:bold;vertical-align:top;">domain</td><td style="vertical-align:top;">:</td><td><div></div></td></tr><tr><td style="font-weight:bold;vertical-align:top;">expires</td><td style="vertical-align:top;">:</td><td><div></div></td></tr><tr><td style="font-weight:bold;vertical-align:top;">httponly</td><td style="vertical-align:top;">:</td><td><div></div></td></tr><tr><td style="font-weight:bold;vertical-align:top;">max-age</td><td style="vertical-align:top;">:</td><td><div></div></td></tr><tr><td style="font-weight:bold;vertical-align:top;">path</td><td style="vertical-align:top;">:</td><td><div></div></td></tr><tr><td style="font-weight:bold;vertical-align:top;">secure</td><td style="vertical-align:top;">:</td><td><div></div></td></tr><tr><td style="font-weight:bold;vertical-align:top;">version</td><td style="vertical-align:top;">:</td><td><div></div></td></tr></table></div></td></tr><tr><td style="font-weight:bold;vertical-align:top;">session_id_congowithbootstrap</td><td style="vertical-align:top;">:</td><td><div>127.0.0.1-a4e7cf50-49e3-4d67-b11f-a09aab767f5e<table><tr><td style="font-weight:bold;vertical-align:top;">comment</td><td style="vertical-align:top;">:</td><td><div></div></td></tr><tr><td style="font-weight:bold;vertical-align:top;">domain</td><td style="vertical-align:top;">:</td><td><div></div></td></tr><tr><td style="font-weight:bold;vertical-align:top;">expires</td><td style="vertical-align:top;">:</td><td><div></div></td></tr><tr><td style="font-weight:bold;vertical-align:top;">httponly</td><td style="vertical-align:top;">:</td><td><div></div></td></tr><tr><td style="font-weight:bold;vertical-align:top;">max-age</td><td style="vertical-align:top;">:</td><td><div></div></td></tr><tr><td style="font-weight:bold;vertical-align:top;">path</td><td style="vertical-align:top;">:</td><td><div></div></td></tr><tr><td style="font-weight:bold;vertical-align:top;">secure</td><td style="vertical-align:top;">:</td><td><div></div></td></tr><tr><td style="font-weight:bold;vertical-align:top;">version</td><td style="vertical-align:top;">:</td><td><div></div></td></tr></table></div></td></tr><tr><td style="font-weight:bold;vertical-align:top;">session_id_copied</td><td style="vertical-align:top;">:</td><td><div>127.0.0.1-7eabf227-3c84-4cd2-b6bd-98002fbf813c<table><tr><td style="font-weight:bold;vertical-align:top;">comment</td><td style="vertical-align:top;">:</td><td><div></div></td></tr><tr><td style="font-weight:bold;vertical-align:top;">domain</td><td style="vertical-align:top;">:</td><td><div></div></td></tr><tr><td style="font-weight:bold;vertical-align:top;">expires</td><td style="vertical-align:top;">:</td><td><div></div></td></tr><tr><td style="font-weight:bold;vertical-align:top;">httponly</td><td style="vertical-align:top;">:</td><td><div></div></td></tr><tr><td style="font-weight:bold;vertical-align:top;">max-age</td><td style="vertical-align:top;">:</td><td><div></div></td></tr><tr><td style="font-weight:bold;vertical-align:top;">path</td><td style="vertical-align:top;">:</td><td><div></div></td></tr><tr><td style="font-weight:bold;vertical-align:top;">secure</td><td style="vertical-align:top;">:</td><td><div></div></td></tr><tr><td style="font-weight:bold;vertical-align:top;">version</td><td style="vertical-align:top;">:</td><td><div></div></td></tr></table></div></td></tr><tr><td style="font-weight:bold;vertical-align:top;">session_id_welcome</td><td style="vertical-align:top;">:</td><td><div>127.0.0.1-38f35c8b-3201-4e59-88e9-99d64f4402a0<table><tr><td style="font-weight:bold;vertical-align:top;">comment</td><td style="vertical-align:top;">:</td><td><div></div></td></tr><tr><td style="font-weight:bold;vertical-align:top;">domain</td><td style="vertical-align:top;">:</td><td><div></div></td></tr><tr><td style="font-weight:bold;vertical-align:top;">expires</td><td style="vertical-align:top;">:</td><td><div></div></td></tr><tr><td style="font-weight:bold;vertical-align:top;">httponly</td><td style="vertical-align:top;">:</td><td><div></div></td></tr><tr><td style="font-weight:bold;vertical-align:top;">max-age</td><td style="vertical-align:top;">:</td><td><div></div></td></tr><tr><td style="font-weight:bold;vertical-align:top;">path</td><td style="vertical-align:top;">:</td><td><div></div></td></tr><tr><td style="font-weight:bold;vertical-align:top;">secure</td><td style="vertical-align:top;">:</td><td><div></div></td></tr><tr><td style="font-weight:bold;vertical-align:top;">version</td><td style="vertical-align:top;">:</td><td><div></div></td></tr></table></div></td></tr></table></div></td></tr><tr><td style="font-weight:bold;vertical-align:top;">env</td><td style="vertical-align:top;">:</td><td><div><table><tr><td style="font-weight:bold;vertical-align:top;">HTTP_ACCEPT</td><td style="vertical-align:top;">:</td><td><div>text/html,application/xhtml+xml,application/xml;q=0.9,image/webp,*/*;q=0.8</div></td></tr><tr><td style="font-weight:bold;vertical-align:top;">HTTP_ACCEPT_ENCODING</td><td style="vertical-align:top;">:</td><td><div>gzip, deflate, sdch</div></td></tr><tr><td style="font-weight:bold;vertical-align:top;">HTTP_ACCEPT_LANGUAGE</td><td style="vertical-align:top;">:</td><td><div>en-GB,en-US;q=0.8,en;q=0.6</div></td></tr><tr><td style="font-weight:bold;vertical-align:top;">HTTP_CACHE_CONTROL</td><td style="vertical-align:top;">:</td><td><div>max-age=0</div></td></tr><tr><td style="font-weight:bold;vertical-align:top;">HTTP_CONNECTION</td><td style="vertical-align:top;">:</td><td><div>keep-alive</div></td></tr><tr><td style="font-weight:bold;vertical-align:top;">HTTP_COOKIE</td><td style="vertical-align:top;">:</td><td><div>session_id_congowithbootstrap=127.0.0.1-a4e7cf50-49e3-4d67-b11f-a09aab767f5e; session_id_welcome=127.0.0.1-38f35c8b-3201-4e59-88e9-99d64f4402a0; session_id_copied=127.0.0.1-7eabf227-3c84-4cd2-b6bd-98002fbf813c; session_id_admin=127.0.0.1-31a3f438-c79a-4c07-aad5-bdb59e7b8090; session_id_bootup=127.0.0.1-f1ec12bf-3c97-4f3e-a239-b604f7945776</div></td></tr><tr><td style="font-weight:bold;vertical-align:top;">HTTP_HOST</td><td style="vertical-align:top;">:</td><td><div>127.0.0.1:8000</div></td></tr><tr><td style="font-weight:bold;vertical-align:top;">HTTP_REFERER</td><td style="vertical-align:top;">:</td><td><div>http://127.0.0.1:8000/BootUp/profile/rewards/7</div></td></tr><tr><td style="font-weight:bold;vertical-align:top;">HTTP_USER_AGENT</td><td style="vertical-align:top;">:</td><td><div>Mozilla/5.0 (X11; Linux x86_64) AppleWebKit/537.36 (KHTML, like Gecko) Chrome/39.0.2171.65 Safari/537.36</div></td></tr><tr><td style="font-weight:bold;vertical-align:top;">PATH_INFO</td><td style="vertical-align:top;">:</td><td><div>/BootUp/profile/rewards/7</div></td></tr><tr><td style="font-weight:bold;vertical-align:top;">QUERY_STRING</td><td style="vertical-align:top;">:</td><td><div></div></td></tr><tr><td style="font-weight:bold;vertical-align:top;">REMOTE_ADDR</td><td style="vertical-align:top;">:</td><td><div>127.0.0.1</div></td></tr><tr><td style="font-weight:bold;vertical-align:top;">REMOTE_PORT</td><td style="vertical-align:top;">:</td><td><div>52564</div></td></tr><tr><td style="font-weight:bold;vertical-align:top;">REQUEST_METHOD</td><td style="vertical-align:top;">:</td><td><div>GET</div></td></tr><tr><td style="font-weight:bold;vertical-align:top;">SCRIPT_NAME</td><td style="vertical-align:top;">:</td><td><div></div></td></tr><tr><td style="font-weight:bold;vertical-align:top;">SERVER_NAME</td><td style="vertical-align:top;">:</td><td><div>pc975s</div></td></tr><tr><td style="font-weight:bold;vertical-align:top;">SERVER_PORT</td><td style="vertical-align:top;">:</td><td><div>8000</div></td></tr><tr><td style="font-weight:bold;vertical-align:top;">SERVER_PROTOCOL</td><td style="vertical-align:top;">:</td><td><div>HTTP/1.1</div></td></tr><tr><td style="font-weight:bold;vertical-align:top;">SERVER_SOFTWARE</td><td style="vertical-align:top;">:</td><td><div>Rocket 1.2.6</div></td></tr><tr><td style="font-weight:bold;vertical-align:top;">app_folders</td><td style="vertical-align:top;">:</td><td><div>set([&#x27;/usr/userfs/r/rs1019/iapt/web2py/applications/admin/&#x27;, &#x27;/usr/userfs/r/rs1019/iapt/web2py/applications/welcome/&#x27;, &#x27;/usr/userfs/r/rs1019/iapt/web2py/applications/copied/&#x27;, &#x27;/usr/userfs/r/rs1019/iapt/web2py/applications/BootUp/&#x27;, &#x27;/usr/userfs/r/rs1019/iapt/web2py/applications/CongoWithBootstrap/&#x27;])</div></td></tr><tr><td style="font-weight:bold;vertical-align:top;">applications_parent</td><td style="vertical-align:top;">:</td><td><div>/usr/userfs/r/rs1019/iapt/web2py</div></td></tr><tr><td style="font-weight:bold;vertical-align:top;">cmd_args</td><td style="vertical-align:top;">:</td><td><div><table></table></div></td></tr><tr><td style="font-weight:bold;vertical-align:top;">cmd_options</td><td style="vertical-align:top;">:</td><td><div>&lt;Values at 0x7f096221a440: {&#x27;verbose&#x27;: False, &#x27;ip&#x27;: &#x27;127.0.0.1&#x27;, &#x27;debuglevel&#x27;: 30, &#x27;with_scheduler&#x27;: False, &#x27;ips&#x27;: [&#x27;144.32.179.175&#x27;], &#x27;shutdown_timeout&#x27;: 5, &#x27;taskbar&#x27;: False, &#x27;with_coverage&#x27;: False, &#x27;scheduler_groups&#x27;: None, &#x27;port&#x27;: 8000, &#x27;maxthreads&#x27;: None, &#x27;softcron&#x27;: False, &#x27;server_name&#x27;: &#x27;pc975s&#x27;, &#x27;bpython&#x27;: False, &#x27;nogui&#x27;: False, &#x27;pid_filename&#x27;: &#x27;httpserver.pid&#x27;, &#x27;extcron&#x27;: False, &#x27;runcron&#x27;: False, &#x27;run_system_tests&#x27;: False, &#x27;test&#x27;: None, &#x27;folder&#x27;: &#x27;/usr/userfs/r/rs1019/iapt/web2py&#x27;, &#x27;config&#x27;: &#x27;&#x27;, &#x27;minthreads&#x27;: None, &#x27;shell&#x27;: None, &#x27;run&#x27;: &#x27;&#x27;, &#x27;log_filename&#x27;: &#x27;httpserver.log&#x27;, &#x27;profiler_dir&#x27;: None, &#x27;args&#x27;: [&#x27;&#x27;], &#x27;socket_timeout&#x27;: 5, &#x27;ssl_ca_certificate&#x27;: None, &#x27;scheduler&#x27;: None, &#x27;interfaces&#x27;: None, &#x27;ssl_private_key&#x27;: &#x27;&#x27;, &#x27;gae&#x27;: None, &#x27;password&#x27;: &#x27;&lt;ask&gt;&#x27;, &#x27;request_queue_size&#x27;: 5, &#x27;ssl_certificate&#x27;: &#x27;&#x27;, &#x27;cronjob&#x27;: False, &#x27;numthreads&#x27;: None, &#x27;quiet&#x27;: False, &#x27;import_models&#x27;: False, &#x27;timeout&#x27;: 10, &#x27;plain&#x27;: False, &#x27;nobanner&#x27;: False}&gt;</div></td></tr><tr><td style="font-weight:bold;vertical-align:top;">db_sessions</td><td style="vertical-align:top;">:</td><td><div>set([])</div></td></tr><tr><td style="font-weight:bold;vertical-align:top;">debugging</td><td style="vertical-align:top;">:</td><td><div>False</div></td></tr><tr><td style="font-weight:bold;vertical-align:top;">gluon_parent</td><td style="vertical-align:top;">:</td><td><div>/usr/userfs/r/rs1019/iapt/web2py</div></td></tr><tr><td style="font-weight:bold;vertical-align:top;">http_accept</td><td style="vertical-align:top;">:</td><td><div>text/html,application/xhtml+xml,application/xml;q=0.9,image/webp,*/*;q=0.8</div></td></tr><tr><td style="font-weight:bold;vertical-align:top;">http_accept_encoding</td><td style="vertical-align:top;">:</td><td><div>gzip, deflate, sdch</div></td></tr><tr><td style="font-weight:bold;vertical-align:top;">http_accept_language</td><td style="vertical-align:top;">:</td><td><div>en-GB,en-US;q=0.8,en;q=0.6</div></td></tr><tr><td style="font-weight:bold;vertical-align:top;">http_cache_control</td><td style="vertical-align:top;">:</td><td><div>max-age=0</div></td></tr><tr><td style="font-weight:bold;vertical-align:top;">http_connection</td><td style="vertical-align:top;">:</td><td><div>keep-alive</div></td></tr><tr><td style="font-weight:bold;vertical-align:top;">http_cookie</td><td style="vertical-align:top;">:</td><td><div>session_id_congowithbootstrap=127.0.0.1-a4e7cf50-49e3-4d67-b11f-a09aab767f5e; session_id_welcome=127.0.0.1-38f35c8b-3201-4e59-88e9-99d64f4402a0; session_id_copied=127.0.0.1-7eabf227-3c84-4cd2-b6bd-98002fbf813c; session_id_admin=127.0.0.1-31a3f438-c79a-4c07-aad5-bdb59e7b8090; session_id_bootup=127.0.0.1-f1ec12bf-3c97-4f3e-a239-b604f7945776</div></td></tr><tr><td style="font-weight:bold;vertical-align:top;">http_host</td><td style="vertical-align:top;">:</td><td><div>127.0.0.1:8000</div></td></tr><tr><td style="font-weight:bold;vertical-align:top;">http_referer</td><td style="vertical-align:top;">:</td><td><div>http://127.0.0.1:8000/BootUp/profile/rewards/7</div></td></tr><tr><td style="font-weight:bold;vertical-align:top;">http_user_agent</td><td style="vertical-align:top;">:</td><td><div>Mozilla/5.0 (X11; Linux x86_64) AppleWebKit/537.36 (KHTML, like Gecko) Chrome/39.0.2171.65 Safari/537.36</div></td></tr><tr><td style="font-weight:bold;vertical-align:top;">is_jython</td><td style="vertical-align:top;">:</td><td><div>False</div></td></tr><tr><td style="font-weight:bold;vertical-align:top;">is_pypy</td><td style="vertical-align:top;">:</td><td><div>False</div></td></tr><tr><td style="font-weight:bold;vertical-align:top;">is_source</td><td style="vertical-align:top;">:</td><td><div>True</div></td></tr><tr><td style="font-weight:bold;vertical-align:top;">local_hosts</td><td style="vertical-align:top;">:</td><td><div><table><tr><td><div>pc975s</div></td></tr><tr><td><div>::ffff:127.0.0.1</div></td></tr><tr><td><div>::1</div></td></tr><tr><td><div>pc975s.cs.york.ac.uk</div></td></tr><tr><td><div>144.32.179.175</div></td></tr><tr><td><div>127.0.0.1</div></td></tr></table></div></td></tr><tr><td style="font-weight:bold;vertical-align:top;">path_info</td><td style="vertical-align:top;">:</td><td><div>/BootUp/profile/rewards/7</div></td></tr><tr><td style="font-weight:bold;vertical-align:top;">query_string</td><td style="vertical-align:top;">:</td><td><div></div></td></tr><tr><td style="font-weight:bold;vertical-align:top;">remote_addr</td><td style="vertical-align:top;">:</td><td><div>127.0.0.1</div></td></tr><tr><td style="font-weight:bold;vertical-align:top;">remote_port</td><td style="vertical-align:top;">:</td><td><div>52564</div></td></tr><tr><td style="font-weight:bold;vertical-align:top;">request_method</td><td style="vertical-align:top;">:</td><td><div>GET</div></td></tr><tr><td style="font-weight:bold;vertical-align:top;">request_uri</td><td style="vertical-align:top;">:</td><td><div>/BootUp/profile/rewards/7</div></td></tr><tr><td style="font-weight:bold;vertical-align:top;">script_name</td><td style="vertical-align:top;">:</td><td><div></div></td></tr><tr><td style="font-weight:bold;vertical-align:top;">server_name</td><td style="vertical-align:top;">:</td><td><div>pc975s</div></td></tr><tr><td style="font-weight:bold;vertical-align:top;">server_port</td><td style="vertical-align:top;">:</td><td><div>8000</div></td></tr><tr><td style="font-weight:bold;vertical-align:top;">server_protocol</td><td style="vertical-align:top;">:</td><td><div>HTTP/1.1</div></td></tr><tr><td style="font-weight:bold;vertical-align:top;">server_software</td><td style="vertical-align:top;">:</td><td><div>Rocket 1.2.6</div></td></tr><tr><td style="font-weight:bold;vertical-align:top;">web2py_path</td><td style="vertical-align:top;">:</td><td><div>/usr/userfs/r/rs1019/iapt/web2py</div></td></tr><tr><td style="font-weight:bold;vertical-align:top;">web2py_version</td><td style="vertical-align:top;">:</td><td><div>2.9.11-stable+timestamp.2014.09.15.23.35.11</div></td></tr><tr><td style="font-weight:bold;vertical-align:top;">wsgi.errors</td><td style="vertical-align:top;">:</td><td><div>&lt;open file &#x27;&lt;stderr&gt;&#x27;, mode &#x27;w&#x27; at 0x7f096a55d1e0&gt;</div></td></tr><tr><td style="font-weight:bold;vertical-align:top;">wsgi.file_wrapper</td><td style="vertical-align:top;">:</td><td><div>&lt;class wsgiref.util.FileWrapper at 0x7f09622b4668&gt;</div></td></tr><tr><td style="font-weight:bold;vertical-align:top;">wsgi.input</td><td style="vertical-align:top;">:</td><td><div>&lt;socket._fileobject object at 0x7f09308781d0&gt;</div></td></tr><tr><td style="font-weight:bold;vertical-align:top;">wsgi.multiprocess</td><td style="vertical-align:top;">:</td><td><div>False</div></td></tr><tr><td style="font-weight:bold;vertical-align:top;">wsgi.multithread</td><td style="vertical-align:top;">:</td><td><div>True</div></td></tr><tr><td style="font-weight:bold;vertical-align:top;">wsgi.run_once</td><td style="vertical-align:top;">:</td><td><div>False</div></td></tr><tr><td style="font-weight:bold;vertical-align:top;">wsgi.url_scheme</td><td style="vertical-align:top;">:</td><td><div>http</div></td></tr><tr><td style="font-weight:bold;vertical-align:top;">wsgi.version</td><td style="vertical-align:top;">:</td><td><div><table><tr><td><div>1</div></td></tr><tr><td><div>0</div></td></tr></table></div></td></tr><tr><td style="font-weight:bold;vertical-align:top;">wsgi_errors</td><td style="vertical-align:top;">:</td><td><div>&lt;open file &#x27;&lt;stderr&gt;&#x27;, mode &#x27;w&#x27; at 0x7f096a55d1e0&gt;</div></td></tr><tr><td style="font-weight:bold;vertical-align:top;">wsgi_file_wrapper</td><td style="vertical-align:top;">:</td><td><div>&lt;class wsgiref.util.FileWrapper at 0x7f09622b4668&gt;</div></td></tr><tr><td style="font-weight:bold;vertical-align:top;">wsgi_input</td><td style="vertical-align:top;">:</td><td><div>&lt;socket._fileobject object at 0x7f09308781d0&gt;</div></td></tr><tr><td style="font-weight:bold;vertical-align:top;">wsgi_multiprocess</td><td style="vertical-align:top;">:</td><td><div>False</div></td></tr><tr><td style="font-weight:bold;vertical-align:top;">wsgi_multithread</td><td style="vertical-align:top;">:</td><td><div>True</div></td></tr><tr><td style="font-weight:bold;vertical-align:top;">wsgi_run_once</td><td style="vertical-align:top;">:</td><td><div>False</div></td></tr><tr><td style="font-weight:bold;vertical-align:top;">wsgi_url_scheme</td><td style="vertical-align:top;">:</td><td><div>http</div></td></tr><tr><td style="font-weight:bold;vertical-align:top;">wsgi_version</td><td style="vertical-align:top;">:</td><td><div><table><tr><td><div>1</div></td></tr><tr><td><div>0</div></td></tr></table></div></td></tr></table></div></td></tr><tr><td style="font-weight:bold;vertical-align:top;">extension</td><td style="vertical-align:top;">:</td><td><div>html</div></td></tr><tr><td style="font-weight:bold;vertical-align:top;">folder</td><td style="vertical-align:top;">:</td><td><div>/usr/userfs/r/rs1019/iapt/web2py/applications/BootUp/</div></td></tr><tr><td style="font-weight:bold;vertical-align:top;">function</td><td style="vertical-align:top;">:</td><td><div>rewards</div></td></tr><tr><td style="font-weight:bold;vertical-align:top;">global_settings</td><td style="vertical-align:top;">:</td><td><div><table><tr><td style="font-weight:bold;vertical-align:top;">app_folders</td><td style="vertical-align:top;">:</td><td><div>set([&#x27;/usr/userfs/r/rs1019/iapt/web2py/applications/admin/&#x27;, &#x27;/usr/userfs/r/rs1019/iapt/web2py/applications/welcome/&#x27;, &#x27;/usr/userfs/r/rs1019/iapt/web2py/applications/copied/&#x27;, &#x27;/usr/userfs/r/rs1019/iapt/web2py/applications/BootUp/&#x27;, &#x27;/usr/userfs/r/rs1019/iapt/web2py/applications/CongoWithBootstrap/&#x27;])</div></td></tr><tr><td style="font-weight:bold;vertical-align:top;">applications_parent</td><td style="vertical-align:top;">:</td><td><div>/usr/userfs/r/rs1019/iapt/web2py</div></td></tr><tr><td style="font-weight:bold;vertical-align:top;">cmd_args</td><td style="vertical-align:top;">:</td><td><div><table></table></div></td></tr><tr><td style="font-weight:bold;vertical-align:top;">cmd_options</td><td style="vertical-align:top;">:</td><td><div>&lt;Values at 0x7f096221a440: {&#x27;verbose&#x27;: False, &#x27;ip&#x27;: &#x27;127.0.0.1&#x27;, &#x27;debuglevel&#x27;: 30, &#x27;with_scheduler&#x27;: False, &#x27;ips&#x27;: [&#x27;144.32.179.175&#x27;], &#x27;shutdown_timeout&#x27;: 5, &#x27;taskbar&#x27;: False, &#x27;with_coverage&#x27;: False, &#x27;scheduler_groups&#x27;: None, &#x27;port&#x27;: 8000, &#x27;maxthreads&#x27;: None, &#x27;softcron&#x27;: False, &#x27;server_name&#x27;: &#x27;pc975s&#x27;, &#x27;bpython&#x27;: False, &#x27;nogui&#x27;: False, &#x27;pid_filename&#x27;: &#x27;httpserver.pid&#x27;, &#x27;extcron&#x27;: False, &#x27;runcron&#x27;: False, &#x27;run_system_tests&#x27;: False, &#x27;test&#x27;: None, &#x27;folder&#x27;: &#x27;/usr/userfs/r/rs1019/iapt/web2py&#x27;, &#x27;config&#x27;: &#x27;&#x27;, &#x27;minthreads&#x27;: None, &#x27;shell&#x27;: None, &#x27;run&#x27;: &#x27;&#x27;, &#x27;log_filename&#x27;: &#x27;httpserver.log&#x27;, &#x27;profiler_dir&#x27;: None, &#x27;args&#x27;: [&#x27;&#x27;], &#x27;socket_timeout&#x27;: 5, &#x27;ssl_ca_certificate&#x27;: None, &#x27;scheduler&#x27;: None, &#x27;interfaces&#x27;: None, &#x27;ssl_private_key&#x27;: &#x27;&#x27;, &#x27;gae&#x27;: None, &#x27;password&#x27;: &#x27;&lt;ask&gt;&#x27;, &#x27;request_queue_size&#x27;: 5, &#x27;ssl_certificate&#x27;: &#x27;&#x27;, &#x27;cronjob&#x27;: False, &#x27;numthreads&#x27;: None, &#x27;quiet&#x27;: False, &#x27;import_models&#x27;: False, &#x27;timeout&#x27;: 10, &#x27;plain&#x27;: False, &#x27;nobanner&#x27;: False}&gt;</div></td></tr><tr><td style="font-weight:bold;vertical-align:top;">db_sessions</td><td style="vertical-align:top;">:</td><td><div>set([])</div></td></tr><tr><td style="font-weight:bold;vertical-align:top;">debugging</td><td style="vertical-align:top;">:</td><td><div>False</div></td></tr><tr><td style="font-weight:bold;vertical-align:top;">gluon_parent</td><td style="vertical-align:top;">:</td><td><div>/usr/userfs/r/rs1019/iapt/web2py</div></td></tr><tr><td style="font-weight:bold;vertical-align:top;">is_jython</td><td style="vertical-align:top;">:</td><td><div>False</div></td></tr><tr><td style="font-weight:bold;vertical-align:top;">is_pypy</td><td style="vertical-align:top;">:</td><td><div>False</div></td></tr><tr><td style="font-weight:bold;vertical-align:top;">is_source</td><td style="vertical-align:top;">:</td><td><div>True</div></td></tr><tr><td style="font-weight:bold;vertical-align:top;">local_hosts</td><td style="vertical-align:top;">:</td><td><div><table><tr><td><div>pc975s</div></td></tr><tr><td><div>::ffff:127.0.0.1</div></td></tr><tr><td><div>::1</div></td></tr><tr><td><div>pc975s.cs.york.ac.uk</div></td></tr><tr><td><div>144.32.179.175</div></td></tr><tr><td><div>127.0.0.1</div></td></tr></table></div></td></tr><tr><td style="font-weight:bold;vertical-align:top;">web2py_version</td><td style="vertical-align:top;">:</td><td><div>2.9.11-stable+timestamp.2014.09.15.23.35.11</div></td></tr></table></div></td></tr><tr><td style="font-weight:bold;vertical-align:top;">is_https</td><td style="vertical-align:top;">:</td><td><div>False</div></td></tr><tr><td style="font-weight:bold;vertical-align:top;">is_local</td><td style="vertical-align:top;">:</td><td><div>True</div></td></tr><tr><td style="font-weight:bold;vertical-align:top;">is_restful</td><td style="vertical-align:top;">:</td><td><div>False</div></td></tr><tr><td style="font-weight:bold;vertical-align:top;">is_sheduler</td><td style="vertical-align:top;">:</td><td><div>None</div></td></tr><tr><td style="font-weight:bold;vertical-align:top;">is_shell</td><td style="vertical-align:top;">:</td><td><div>None</div></td></tr><tr><td style="font-weight:bold;vertical-align:top;">now</td><td style="vertical-align:top;">:</td><td><div>datetime.datetime(2014, 11, 24, 20, 14, 49, 118795)</div></td></tr><tr><td style="font-weight:bold;vertical-align:top;">raw_args</td><td style="vertical-align:top;">:</td><td><div>7</div></td></tr><tr><td style="font-weight:bold;vertical-align:top;">raw_extension</td><td style="vertical-align:top;">:</td><td><div>None</div></td></tr><tr><td style="font-weight:bold;vertical-align:top;">url</td><td style="vertical-align:top;">:</td><td><div>/BootUp/profile/rewards/7</div></td></tr><tr><td style="font-weight:bold;vertical-align:top;">utcnow</td><td style="vertical-align:top;">:</td><td><div>datetime.datetime(2014, 11, 24, 20, 14, 49, 118806)</div></td></tr><tr><td style="font-weight:bold;vertical-align:top;">uuid</td><td style="vertical-align:top;">:</td><td><div>BootUp/127.0.0.1.2014-11-24.20-14-49.b01eb000-4bdb-48fe-9fc6-2bf21569efd9</div></td></tr><tr><td style="font-weight:bold;vertical-align:top;">wsgi</td><td style="vertical-align:top;">:</td><td><div>&lt;gluon.main.LazyWSGI object at 0x7f09307f1f90&gt;</div></td></tr></table></div>'
tRp62
sS'frames'
p63
(lp64
(dp65
S'file'
p66
S'/usr/userfs/r/rs1019/iapt/web2py/gluon/restricted.py'
p67
sS'dump'
p68
(dp69
S'environment'
p70
S"{'A': <class 'gluon.html.A'>, 'ANY_OF': <class 'gluon.validators.ANY_OF'>, 'ASSIGNJS': <function ASSIGNJS>, 'Auth': <class 'gluon.tools.Auth'>, 'B': <class 'gluon.html.B'>, 'BEAUTIFY': <class 'gluon.html.BEAUTIFY'>, 'BODY': <class 'gluon.html.BODY'>, 'BR': <class 'gluon.html.BR'>, 'BUTTON': <class 'gluon.html.BUTTON'>, 'CAT': <class 'gluon.html.CAT'>, ...}"
p71
sS'ccode'
p72
S'<code object <module> at 0x7f093093e3b0, file "/...lications/BootUp/controllers/profile.py", line 3>'
p73
ssS'lnum'
p74
I224
sS'lines'
p75
(dp76
I224
S'        exec ccode in environment'
p77
sI225
S'    except HTTP:'
p78
sI226
S'        raise'
p79
sI227
S'    except RestrictedError:'
p80
sI228
S'        # do not encapsulate (obfuscate) the original RestrictedError'
p81
sI219
S'    try:'
p82
sI220
S'        if isinstance(code, types.CodeType):'
p83
sI221
S'            ccode = code'
p84
sI222
S'        else:'
p85
sI223
S'            ccode = compile2(code, layer)'
p86
ssS'call'
p87
S'(code="\\n\\nCOUNTRIES=( \'United Kingdom\', \'United States\',...t)\\n\\n\\n\\n\\n\\nresponse._vars=response._caller(rewards)\\n", environment={\'A\': <class \'gluon.html.A\'>, \'ANY_OF\': <class \'gluon.validators.ANY_OF\'>, \'ASSIGNJS\': <function ASSIGNJS>, \'Auth\': <class \'gluon.tools.Auth\'>, \'B\': <class \'gluon.html.B\'>, \'BEAUTIFY\': <class \'gluon.html.BEAUTIFY\'>, \'BODY\': <class \'gluon.html.BODY\'>, \'BR\': <class \'gluon.html.BR\'>, \'BUTTON\': <class \'gluon.html.BUTTON\'>, \'CAT\': <class \'gluon.html.CAT\'>, ...}, layer=\'/usr/userfs/r/rs1019/iapt/web2py/applications/BootUp/controllers/profile.py\')'
p88
sS'func'
p89
S'restricted'
p90
sa(dp91
g66
S'/usr/userfs/r/rs1019/iapt/web2py/applications/BootUp/controllers/profile.py'
p92
sg68
(dp93
sg74
I485
sg75
(dp94
I480
S''
sI481
S''
sI482
S''
sI483
S''
sI474
S'            db.pledge_levels.insert(project_id = project.id, amount = int(request.vars.pledge_amount), reward = request.vars.pledge_reward)'
p95
sI475
S''
sI476
S''
sI477
S'        pledge_levels = db(db.pledge_levels.project_id == project_id).select(orderby=db.pledge_levels.amount)'
p96
sI478
S''
sI479
S'    return dict(pledge_levels = pledge_levels, form = form, user = user, project=project)'
p97
ssg87
S'()'
p98
sg89
S'<module>'
p99
sa(dp100
g66
S'/usr/userfs/r/rs1019/iapt/web2py/gluon/globals.py'
p101
sg68
(dp102
S'self'
p103
S'undefined'
p104
sS'f'
S'<function rewards>'
p105
ssg74
I392
sg75
(dp106
I387
S"        self.flash = ''            # used by the default view layout"
p107
sI388
S'        self.meta = Storage()      # used by web2py_ajax.html'
p108
sI389
S'        self.menu = []             # used by the default view layout'
p109
sI390
S'        self.files = []            # used by web2py_ajax.html'
p110
sI391
S'        self._vars = None'
p111
sI392
S'        self._caller = lambda f: f()'
p112
sI393
S'        self._view_environment = None'
p113
sI394
S'        self._custom_commit = None'
p114
sI395
S'        self._custom_rollback = None'
p115
sI396
S"        self.generic_patterns = ['*']"
p116
ssg87
S'(f=<function rewards>)'
p117
sg89
S'<lambda>'
p118
sa(dp119
g66
S'/usr/userfs/r/rs1019/iapt/web2py/applications/BootUp/controllers/profile.py'
p120
sg68
(dp121
S'auth._get_user_id'
p122
S'<bound method Auth._get_user_id of <gluon.tools.Auth object>>'
p123
sS').select'
p124
g104
sS'global auth'
p125
S'<gluon.tools.Auth object>'
p126
sS'db.auth_user'
p127
S'<Table auth_user (id,first_name,last_name,email,...tration_id,birthdate,address_id,bank_details_id)>'
p128
sS'user'
p129
g104
sS'db.auth_user.id'
p130
S'<gluon.dal.Field object>'
p131
sS'global db'
p132
S'<DAL uri="sqlite://bootupdatabase.db">'
p133
ssg74
I459
sg75
(dp134
I454
S'def rewards():'
p135
sI455
S''
sI456
S'    form=None'
p136
sI457
S'    pledge_levels = None'
p137
sI458
S'    project_id = request.args(0)'
p138
sI459
S'    user = (db(db.auth_user.id == auth._get_user_id()).select()).first()'
p139
sI460
S'    projects = db((db.project.username == auth._get_user_id) & (db.project.id == project_id) ).select()'
p140
sI461
S''
sI462
S'    if len(projects) < 1:'
p141
sI463
S'        response.flash = "You dont have permissions to view this project\'s information"'
p142
ssg87
S'()'
p143
sg89
S'rewards'
p144
sa(dp145
g66
S'/usr/userfs/r/rs1019/iapt/web2py/gluon/dal.py'
p146
sg68
(dp147
S'self.query'
p148
S'<Query (auth_user.id = 16)>'
p149
sS'adapter.select'
p150
S'<bound method SQLiteAdapter.select of <gluon.dal.SQLiteAdapter object>>'
p151
sS'fields'
p152
S'[<gluon.dal.Field object>, <gluon.dal.Field object>, <gluon.dal.Field object>, <gluon.dal.Field object>, <gluon.dal.Field object>, <gluon.dal.Field object>, <gluon.dal.Field object>, <gluon.dal.Field object>, <gluon.dal.Field object>, <gluon.dal.Field object>, <gluon.dal.Field object>, <gluon.dal.Field object>]'
p153
sS'adapter'
p154
S'<gluon.dal.SQLiteAdapter object>'
p155
sS'attributes'
p156
g21
sS'self'
p157
S'<Set (auth_user.id = 16)>'
p158
ssg74
I10749
sg75
(dp159
I10752
S'        return Expression(self.db, self._select(*fields, **attributes))'
p160
sI10753
S''
sI10744
S"                                    attributes.get('join', None),"
p161
sI10745
S"                                    attributes.get('left', None),"
p162
sI10746
S"                                    attributes.get('orderby', None),"
p163
sI10747
S"                                    attributes.get('groupby', None))"
p164
sI10748
S'        fields = adapter.expand_all(fields, tablenames)'
p165
sI10749
S'        return adapter.select(self.query, fields, attributes)'
p166
sI10750
S''
sI10751
S'    def nested_select(self, *fields, **attributes):'
p167
ssg87
S'(self=<Set (auth_user.id = 16)>, *fields=[<gluon.dal.Field object>, <gluon.dal.Field object>, <gluon.dal.Field object>, <gluon.dal.Field object>, <gluon.dal.Field object>, <gluon.dal.Field object>, <gluon.dal.Field object>, <gluon.dal.Field object>, <gluon.dal.Field object>, <gluon.dal.Field object>, <gluon.dal.Field object>, <gluon.dal.Field object>], **attributes={})'
p168
sg89
S'select'
p169
sa(dp170
g66
S'/usr/userfs/r/rs1019/iapt/web2py/gluon/dal.py'
p171
sg68
(dp172
S'fields'
p173
S'[<gluon.dal.Field object>, <gluon.dal.Field object>, <gluon.dal.Field object>, <gluon.dal.Field object>, <gluon.dal.Field object>, <gluon.dal.Field object>, <gluon.dal.Field object>, <gluon.dal.Field object>, <gluon.dal.Field object>, <gluon.dal.Field object>, <gluon.dal.Field object>, <gluon.dal.Field object>]'
p174
sS'self'
p175
S'<gluon.dal.SQLiteAdapter object>'
p176
sS').select'
p177
S'<bound method SQLiteAdapter.select of <gluon.dal.SQLiteAdapter object>>'
p178
sS'attributes'
p179
g21
sS'global SQLiteAdapter'
p180
S"<class 'gluon.dal.SQLiteAdapter'>"
p181
sS'query'
p182
S'<Query (auth_user.id = 16)>'
p183
sS'builtinsuper'
p184
S"<type 'super'>"
p185
ssg74
I2472
sg75
(dp186
I2467
S'        Note that the entire database, rather than one record, is locked'
p187
sI2468
S'        (it will be locked eventually anyway by the following UPDATE).'
p188
sI2469
S'        """'
p189
sI2470
S"        if attributes.get('for_update', False) and not 'cache' in attributes:"
p190
sI2471
S"            self.execute('BEGIN IMMEDIATE TRANSACTION;')"
p191
sI2472
S'        return super(SQLiteAdapter, self).select(query, fields, attributes)'
p192
sI2473
S''
sI2474
S''
sI2475
S'class SpatiaLiteAdapter(SQLiteAdapter):'
p193
sI2476
S"    drivers = ('sqlite3', 'sqlite2')"
p194
ssg87
S'(self=<gluon.dal.SQLiteAdapter object>, query=<Query (auth_user.id = 16)>, fields=[<gluon.dal.Field object>, <gluon.dal.Field object>, <gluon.dal.Field object>, <gluon.dal.Field object>, <gluon.dal.Field object>, <gluon.dal.Field object>, <gluon.dal.Field object>, <gluon.dal.Field object>, <gluon.dal.Field object>, <gluon.dal.Field object>, <gluon.dal.Field object>, <gluon.dal.Field object>], attributes={})'
p195
sg89
g169
sa(dp196
g66
S'/usr/userfs/r/rs1019/iapt/web2py/gluon/dal.py'
p197
sg68
(dp198
S'fields'
p199
S'[<gluon.dal.Field object>, <gluon.dal.Field object>, <gluon.dal.Field object>, <gluon.dal.Field object>, <gluon.dal.Field object>, <gluon.dal.Field object>, <gluon.dal.Field object>, <gluon.dal.Field object>, <gluon.dal.Field object>, <gluon.dal.Field object>, <gluon.dal.Field object>, <gluon.dal.Field object>]'
p200
sS'self'
p201
S'<gluon.dal.SQLiteAdapter object>'
p202
sS'attributes'
p203
g21
sS'self._select_aux'
p204
S'<bound method SQLiteAdapter._select_aux of <gluon.dal.SQLiteAdapter object>>'
p205
sS'sql'
p206
S"'SELECT  auth_user.id, auth_user.first_name, auth...ails_id FROM auth_user WHERE (auth_user.id = 16);'"
p207
ssg74
I1881
sg75
(dp208
I1876
S'            return cache_model('
p209
sI1877
S'                key,'
p210
sI1878
S'                lambda self=self, args=args: self._select_aux(*args),'
p211
sI1879
S'                time_expire)'
p212
sI1880
S'        else:'
p213
sI1881
S'            return self._select_aux(sql, fields, attributes)'
p214
sI1882
S''
sI1883
S'    def _count(self, query, distinct=None):'
p215
sI1884
S'        tablenames = self.tables(query)'
p216
sI1885
S'        if query:'
p217
ssg87
S'(self=<gluon.dal.SQLiteAdapter object>, query=<Query (auth_user.id = 16)>, fields=[<gluon.dal.Field object>, <gluon.dal.Field object>, <gluon.dal.Field object>, <gluon.dal.Field object>, <gluon.dal.Field object>, <gluon.dal.Field object>, <gluon.dal.Field object>, <gluon.dal.Field object>, <gluon.dal.Field object>, <gluon.dal.Field object>, <gluon.dal.Field object>, <gluon.dal.Field object>], attributes={})'
p218
sg89
g169
sa(dp219
g66
S'/usr/userfs/r/rs1019/iapt/web2py/gluon/dal.py'
p220
sg68
(dp221
S'self'
p222
S'<gluon.dal.SQLiteAdapter object>'
p223
sS'self.execute'
p224
S'<bound method SQLiteAdapter.execute of <gluon.dal.SQLiteAdapter object>>'
p225
sS'sql'
p226
S"'SELECT  auth_user.id, auth_user.first_name, auth...ails_id FROM auth_user WHERE (auth_user.id = 16);'"
p227
ssg74
I1846
sg75
(dp228
I1841
S''
sI1842
S'    def _select_aux(self, sql, fields, attributes):'
p229
sI1843
S'        args_get = attributes.get'
p230
sI1844
S"        cache = args_get('cache',None)"
p231
sI1845
S'        if not cache:'
p232
sI1846
S'            self.execute(sql)'
p233
sI1847
S'            rows = self._fetchall()'
p234
sI1848
S'        else:'
p235
sI1849
S'            (cache_model, time_expire) = cache'
p236
sI1850
S"            key = self.uri + '/' + sql + '/rows'"
p237
ssg87
S"(self=<gluon.dal.SQLiteAdapter object>, sql='SELECT  auth_user.id, auth_user.first_name, auth...ails_id FROM auth_user WHERE (auth_user.id = 16);', fields=[<gluon.dal.Field object>, <gluon.dal.Field object>, <gluon.dal.Field object>, <gluon.dal.Field object>, <gluon.dal.Field object>, <gluon.dal.Field object>, <gluon.dal.Field object>, <gluon.dal.Field object>, <gluon.dal.Field object>, <gluon.dal.Field object>, <gluon.dal.Field object>, <gluon.dal.Field object>], attributes={})"
p238
sg89
S'_select_aux'
p239
sa(dp240
g66
S'/usr/userfs/r/rs1019/iapt/web2py/gluon/dal.py'
p241
sg68
(dp242
S'a'
S"('SELECT  auth_user.id, auth_user.first_name, auth...ails_id FROM auth_user WHERE (auth_user.id = 16);',)"
p243
sS'self'
p244
S'<gluon.dal.SQLiteAdapter object>'
p245
sS'b'
g21
sS'self.log_execute'
p246
S'<bound method SQLiteAdapter.log_execute of <gluon.dal.SQLiteAdapter object>>'
p247
ssg74
I1967
sg75
(dp248
I1962
S'        self.db._timings.append((command, time.time()-t0))'
p249
sI1963
S'        del self.db._timings[:-TIMINGSSIZE]'
p250
sI1964
S'        return ret'
p251
sI1965
S''
sI1966
S'    def execute(self, *a, **b):'
p252
sI1967
S'        return self.log_execute(*a, **b)'
p253
sI1968
S''
sI1969
S'    def represent(self, obj, fieldtype):'
p254
sI1970
S'        field_is_type = fieldtype.startswith'
p255
sI1971
S'        if isinstance(obj, CALLABLETYPES):'
p256
ssg87
S"(self=<gluon.dal.SQLiteAdapter object>, *a=('SELECT  auth_user.id, auth_user.first_name, auth...ails_id FROM auth_user WHERE (auth_user.id = 16);',), **b={})"
p257
sg89
S'execute'
p258
sa(dp259
g66
S'/usr/userfs/r/rs1019/iapt/web2py/gluon/dal.py'
p260
sg68
(dp261
S'a'
S"('SELECT  auth_user.id, auth_user.first_name, auth...ails_id FROM auth_user WHERE (auth_user.id = 16);',)"
p262
sS'b'
g21
sS'self'
p263
S'<gluon.dal.SQLiteAdapter object>'
p264
sS'ret'
p265
g104
sS'self.cursor'
p266
S'<pysqlite2.dbapi2.Cursor object>'
p267
sS'command'
p268
S"'SELECT  auth_user.id, auth_user.first_name, auth...ails_id FROM auth_user WHERE (auth_user.id = 16);'"
p269
sS'self.cursor.execute'
p270
S'<built-in method execute of pysqlite2.dbapi2.Cursor object>'
p271
ssg74
I1961
sg75
(dp272
I1956
S'            command = self.filter_sql_command(command)'
p273
sI1957
S'        if self.db._debug:'
p274
sI1958
S"            LOGGER.debug('SQL: %s' % command)"
p275
sI1959
S'        self.db._lastsql = command'
p276
sI1960
S'        t0 = time.time()'
p277
sI1961
S'        ret = self.cursor.execute(command, *a[1:], **b)'
p278
sI1962
S'        self.db._timings.append((command, time.time()-t0))'
p279
sI1963
S'        del self.db._timings[:-TIMINGSSIZE]'
p280
sI1964
S'        return ret'
p281
sI1965
S''
ssg87
S"(self=<gluon.dal.SQLiteAdapter object>, *a=('SELECT  auth_user.id, auth_user.first_name, auth...ails_id FROM auth_user WHERE (auth_user.id = 16);',), **b={})"
p282
sg89
S'log_execute'
p283
sasS'pyver'
p284
S'Python 2.7.6: /usr/bin/python (prefix: /usr)'
p285
sS'session'
p286
g61
(S's\x9d\n\x00\x00<div><table><tr><td style="font-weight:bold;vertical-align:top;">auth</td><td style="vertical-align:top;">:</td><td><div><table><tr><td style="font-weight:bold;vertical-align:top;">expiration</td><td style="vertical-align:top;">:</td><td><div>3600</div></td></tr><tr><td style="font-weight:bold;vertical-align:top;">hmac_key</td><td style="vertical-align:top;">:</td><td><div>c752cb1f-4823-4969-a0ce-d1e564a1eec3</div></td></tr><tr><td style="font-weight:bold;vertical-align:top;">last_visit</td><td style="vertical-align:top;">:</td><td><div>datetime.datetime(2014, 11, 24, 20, 10, 27, 609696)</div></td></tr><tr><td style="font-weight:bold;vertical-align:top;">user</td><td style="vertical-align:top;">:</td><td><div><table><tr><td style="font-weight:bold;vertical-align:top;">address_id</td><td style="vertical-align:top;">:</td><td><div>7L</div></td></tr><tr><td style="font-weight:bold;vertical-align:top;">bank_details_id</td><td style="vertical-align:top;">:</td><td><div>6L</div></td></tr><tr><td style="font-weight:bold;vertical-align:top;">birthdate</td><td style="vertical-align:top;">:</td><td><div>datetime.date(2014, 11, 9)</div></td></tr><tr><td style="font-weight:bold;vertical-align:top;">email</td><td style="vertical-align:top;">:</td><td><div></div></td></tr><tr><td style="font-weight:bold;vertical-align:top;">first_name</td><td style="vertical-align:top;">:</td><td><div>Rory</div></td></tr><tr><td style="font-weight:bold;vertical-align:top;">id</td><td style="vertical-align:top;">:</td><td><div>16L</div></td></tr><tr><td style="font-weight:bold;vertical-align:top;">last_name</td><td style="vertical-align:top;">:</td><td><div>Simpson</div></td></tr><tr><td style="font-weight:bold;vertical-align:top;">registration_id</td><td style="vertical-align:top;">:</td><td><div></div></td></tr><tr><td style="font-weight:bold;vertical-align:top;">registration_key</td><td style="vertical-align:top;">:</td><td><div></div></td></tr><tr><td style="font-weight:bold;vertical-align:top;">reset_password_key</td><td style="vertical-align:top;">:</td><td><div></div></td></tr><tr><td style="font-weight:bold;vertical-align:top;">username</td><td style="vertical-align:top;">:</td><td><div>Rory</div></td></tr></table></div></td></tr><tr><td style="font-weight:bold;vertical-align:top;">user_groups</td><td style="vertical-align:top;">:</td><td><div><table></table></div></td></tr></table></div></td></tr><tr><td style="font-weight:bold;vertical-align:top;">last_orderby</td><td style="vertical-align:top;">:</td><td><div>None</div></td></tr><tr><td style="font-weight:bold;vertical-align:top;">last_query</td><td style="vertical-align:top;">:</td><td><div>db.project.id&gt;0</div></td></tr></table></div>'
tRp287
sS'etype'
p288
S"<class 'pysqlite2.dbapi2.OperationalError'>"
p289
sS'date'
p290
S'Mon Nov 24 20:14:49 2014'
p291
sS'response'
p292
g61
(S's\x9d2\x00\x00<div><table><tr><td style="font-weight:bold;vertical-align:top;">body</td><td style="vertical-align:top;">:</td><td><div>&lt;cStringIO.StringO object at 0x7f0962238068&gt;</div></td></tr><tr><td style="font-weight:bold;vertical-align:top;">cookies</td><td style="vertical-align:top;">:</td><td><div><table><tr><td style="font-weight:bold;vertical-align:top;">session_id_bootup</td><td style="vertical-align:top;">:</td><td><div>127.0.0.1-f1ec12bf-3c97-4f3e-a239-b604f7945776<table><tr><td style="font-weight:bold;vertical-align:top;">comment</td><td style="vertical-align:top;">:</td><td><div></div></td></tr><tr><td style="font-weight:bold;vertical-align:top;">domain</td><td style="vertical-align:top;">:</td><td><div></div></td></tr><tr><td style="font-weight:bold;vertical-align:top;">expires</td><td style="vertical-align:top;">:</td><td><div></div></td></tr><tr><td style="font-weight:bold;vertical-align:top;">httponly</td><td style="vertical-align:top;">:</td><td><div></div></td></tr><tr><td style="font-weight:bold;vertical-align:top;">max-age</td><td style="vertical-align:top;">:</td><td><div></div></td></tr><tr><td style="font-weight:bold;vertical-align:top;">path</td><td style="vertical-align:top;">:</td><td><div>/</div></td></tr><tr><td style="font-weight:bold;vertical-align:top;">secure</td><td style="vertical-align:top;">:</td><td><div></div></td></tr><tr><td style="font-weight:bold;vertical-align:top;">version</td><td style="vertical-align:top;">:</td><td><div></div></td></tr></table></div></td></tr></table></div></td></tr><tr><td style="font-weight:bold;vertical-align:top;">delimiters</td><td style="vertical-align:top;">:</td><td><div><table><tr><td><div>{{</div></td></tr><tr><td><div>}}</div></td></tr></table></div></td></tr><tr><td style="font-weight:bold;vertical-align:top;">files</td><td style="vertical-align:top;">:</td><td><div><table></table></div></td></tr><tr><td style="font-weight:bold;vertical-align:top;">flash</td><td style="vertical-align:top;">:</td><td><div></div></td></tr><tr><td style="font-weight:bold;vertical-align:top;">form_label_separator</td><td style="vertical-align:top;">:</td><td><div>: </div></td></tr><tr><td style="font-weight:bold;vertical-align:top;">formstyle</td><td style="vertical-align:top;">:</td><td><div>table3cols</div></td></tr><tr><td style="font-weight:bold;vertical-align:top;">generic_patterns</td><td style="vertical-align:top;">:</td><td><div><table><tr><td><div>*</div></td></tr></table></div></td></tr><tr><td style="font-weight:bold;vertical-align:top;">google_analytics_id</td><td style="vertical-align:top;">:</td><td><div>None</div></td></tr><tr><td style="font-weight:bold;vertical-align:top;">headers</td><td style="vertical-align:top;">:</td><td><div><table><tr><td style="font-weight:bold;vertical-align:top;">X-Powered-By</td><td style="vertical-align:top;">:</td><td><div>web2py</div></td></tr></table></div></td></tr><tr><td style="font-weight:bold;vertical-align:top;">logo</td><td style="vertical-align:top;">:</td><td><div><a class="brand" href="http://www.web2py.com/"><b>web<span>2</span>py</b>&trade;&nbsp;</a></div></td></tr><tr><td style="font-weight:bold;vertical-align:top;">menu</td><td style="vertical-align:top;">:</td><td><div><table><tr><td><div><table><tr><td><div>Home</div></td></tr><tr><td><div>False</div></td></tr><tr><td><div>/BootUp/default/index</div></td></tr><tr><td><div><table></table></div></td></tr></table></div></td></tr><tr><td><div><table><tr><td><div><span class="highlighted">web2py</span></div></td></tr><tr><td><div>False</div></td></tr><tr><td><div>http://web2py.com</div></td></tr><tr><td><div><table><tr><td><div><table><tr><td><div>My Sites</div></td></tr><tr><td><div>False</div></td></tr><tr><td><div>/admin/default/site</div></td></tr></table></div></td></tr><tr><td><div><table><tr><td><div>This App</div></td></tr><tr><td><div>False</div></td></tr><tr><td><div>/admin/default/design/BootUp</div></td></tr><tr><td><div>[(&lt;lazyT &#x27;Controller&#x27;&gt;, False, &#x27;/admin/default/edit/BootUp/controllers/profile.py&#x27;), (&lt;lazyT &#x27;View&#x27;&gt;, False, &#x27;/admin/default/edit/BootUp/views/profile/rewards.html&#x27;), (&lt;lazyT &#x27;Layout&#x27;&gt;, False, &#x27;/admin/default/edit/BootUp/views/layout.html&#x27;), (&lt;lazyT &#x27;Stylesheet&#x27;&gt;, False, &#x27;/admin/default/edit/BootUp/static/css/web2py.css&#x27;), (&lt;lazyT &#x27;DB Model&#x27;&gt;, False, &#x27;/admin/default/edit/BootUp/models/db.py&#x27;), (&lt;lazyT &#x27;Menu Model&#x27;&gt;, False, &#x27;/admin/default/edit/BootUp/models/menu.py&#x27;), (&lt;lazyT &#x27;Database&#x27;&gt;, False, &#x27;/BootUp/appadmin/index&#x27;), (&lt;lazyT &#x27;Errors&#x27;&gt;, False, &#x27;/admin/default/errors/BootUp&#x27;), (&lt;lazyT &#x27;About&#x27;&gt;, False, &#x27;/admin/default/about/BootUp&#x27;)]</div></td></tr></table></div></td></tr><tr><td><div><table><tr><td><div>web2py.com</div></td></tr><tr><td><div>False</div></td></tr><tr><td><div>http://www.web2py.com</div></td></tr><tr><td><div>[(&lt;lazyT &#x27;Download&#x27;&gt;, False, &#x27;http://www.web2py.com/examples/default/download&#x27;), (&lt;lazyT &#x27;Support&#x27;&gt;, False, &#x27;http://www.web2py.com/examples/default/support&#x27;), (&lt;lazyT &#x27;Demo&#x27;&gt;, False, &#x27;http://web2py.com/demo_admin&#x27;), (&lt;lazyT &#x27;Quick Examples&#x27;&gt;, False, &#x27;http://web2py.com/examples/default/examples&#x27;), (&lt;lazyT &#x27;FAQ&#x27;&gt;, False, &#x27;http://web2py.com/AlterEgo&#x27;), (&lt;lazyT &#x27;Videos&#x27;&gt;, False, &#x27;http://www.web2py.com/examples/default/videos/&#x27;), (&lt;lazyT &#x27;Free Applications&#x27;&gt;, False, &#x27;http://web2py.com/appliances&#x27;), (&lt;lazyT &#x27;Plugins&#x27;&gt;, False, &#x27;http://web2py.com/plugins&#x27;), (&lt;lazyT &#x27;Layouts&#x27;&gt;, False, &#x27;http://web2py.com/layouts&#x27;), (&lt;lazyT &#x27;Recipes&#x27;&gt;, False, &#x27;http://web2pyslices.com/&#x27;), (&lt;lazyT &#x27;Semantic&#x27;&gt;, False, &#x27;http://web2py.com/semantic&#x27;)]</div></td></tr></table></div></td></tr><tr><td><div><table><tr><td><div>Documentation</div></td></tr><tr><td><div>False</div></td></tr><tr><td><div>http://www.web2py.com/book</div></td></tr><tr><td><div>[(&lt;lazyT &#x27;Preface&#x27;&gt;, False, &#x27;http://www.web2py.com/book/default/chapter/00&#x27;), (&lt;lazyT &#x27;Introduction&#x27;&gt;, False, &#x27;http://www.web2py.com/book/default/chapter/01&#x27;), (&lt;lazyT &#x27;Python&#x27;&gt;, False, &#x27;http://www.web2py.com/book/default/chapter/02&#x27;), (&lt;lazyT &#x27;Overview&#x27;&gt;, False, &#x27;http://www.web2py.com/book/default/chapter/03&#x27;), (&lt;lazyT &#x27;The Core&#x27;&gt;, False, &#x27;http://www.web2py.com/book/default/chapter/04&#x27;), (&lt;lazyT &#x27;The Views&#x27;&gt;, False, &#x27;http://www.web2py.com/book/default/chapter/05&#x27;), (&lt;lazyT &#x27;Database&#x27;&gt;, False, &#x27;http://www.web2py.com/book/default/chapter/06&#x27;), (&lt;lazyT &#x27;Forms and Validators&#x27;&gt;, False, &#x27;http://www.web2py.com/book/default/chapter/07&#x27;), (&lt;lazyT &#x27;Email and SMS&#x27;&gt;, False, &#x27;http://www.web2py.com/book/default/chapter/08&#x27;), (&lt;lazyT &#x27;Access Control&#x27;&gt;, False, &#x27;http://www.web2py.com/book/default/chapter/09&#x27;), (&lt;lazyT &#x27;Services&#x27;&gt;, False, &#x27;http://www.web2py.com/book/default/chapter/10&#x27;), (&lt;lazyT &#x27;Ajax Recipes&#x27;&gt;, False, &#x27;http://www.web2py.com/book/default/chapter/11&#x27;), (&lt;lazyT &#x27;Components and Plugins&#x27;&gt;, False, &#x27;http://www.web2py.com/book/default/chapter/12&#x27;), (&lt;lazyT &#x27;Deployment Recipes&#x27;&gt;, False, &#x27;http://www.web2py.com/book/default/chapter/13&#x27;), (&lt;lazyT &#x27;Other Recipes&#x27;&gt;, False, &#x27;http://www.web2py.com/book/default/chapter/14&#x27;), (&lt;lazyT &#x27;Buy this book&#x27;&gt;, False, &#x27;http://stores.lulu.com/web2py&#x27;)]</div></td></tr></table></div></td></tr><tr><td><div><table><tr><td><div>Community</div></td></tr><tr><td><div>False</div></td></tr><tr><td><div>None</div></td></tr><tr><td><div>[(&lt;lazyT &#x27;Groups&#x27;&gt;, False, &#x27;http://www.web2py.com/examples/default/usergroups&#x27;), (&lt;lazyT &#x27;Twitter&#x27;&gt;, False, &#x27;http://twitter.com/web2py&#x27;), (&lt;lazyT &#x27;Live Chat&#x27;&gt;, False, &#x27;http://webchat.freenode.net/?channels=web2py&#x27;)]</div></td></tr></table></div></td></tr><tr><td><div><table><tr><td><div>Plugins</div></td></tr><tr><td><div>False</div></td></tr><tr><td><div>None</div></td></tr><tr><td><div>[(&#x27;plugin_wiki&#x27;, False, &#x27;http://web2py.com/examples/default/download&#x27;), (&lt;lazyT &#x27;Other Plugins&#x27;&gt;, False, &#x27;http://web2py.com/plugins&#x27;), (&lt;lazyT &#x27;Layout Plugins&#x27;&gt;, False, &#x27;http://web2py.com/layouts&#x27;)]</div></td></tr></table></div></td></tr></table></div></td></tr></table></div></td></tr></table></div></td></tr><tr><td style="font-weight:bold;vertical-align:top;">meta</td><td style="vertical-align:top;">:</td><td><div><table><tr><td style="font-weight:bold;vertical-align:top;">author</td><td style="vertical-align:top;">:</td><td><div>Your Name &lt;you@example.com&gt;</div></td></tr><tr><td style="font-weight:bold;vertical-align:top;">generator</td><td style="vertical-align:top;">:</td><td><div>Web2py Web Framework</div></td></tr><tr><td style="font-weight:bold;vertical-align:top;">keywords</td><td style="vertical-align:top;">:</td><td><div>web2py, python, framework</div></td></tr></table></div></td></tr><tr><td style="font-weight:bold;vertical-align:top;">models_to_run</td><td style="vertical-align:top;">:</td><td><div><table><tr><td><div>^\\w+\\.py$</div></td></tr><tr><td><div>^profile/\\w+\\.py$</div></td></tr><tr><td><div>^profile/rewards/\\w+\\.py$</div></td></tr></table></div></td></tr><tr><td style="font-weight:bold;vertical-align:top;">postprocessing</td><td style="vertical-align:top;">:</td><td><div><table></table></div></td></tr><tr><td style="font-weight:bold;vertical-align:top;">session_client</td><td style="vertical-align:top;">:</td><td><div>127.0.0.1</div></td></tr><tr><td style="font-weight:bold;vertical-align:top;">session_cookie_compression_level</td><td style="vertical-align:top;">:</td><td><div>None</div></td></tr><tr><td style="font-weight:bold;vertical-align:top;">session_cookie_expires</td><td style="vertical-align:top;">:</td><td><div>None</div></td></tr><tr><td style="font-weight:bold;vertical-align:top;">session_cookie_key</td><td style="vertical-align:top;">:</td><td><div>None</div></td></tr><tr><td style="font-weight:bold;vertical-align:top;">session_data_name</td><td style="vertical-align:top;">:</td><td><div>session_data_bootup</div></td></tr><tr><td style="font-weight:bold;vertical-align:top;">session_file</td><td style="vertical-align:top;">:</td><td><div>&lt;open file &#x27;/usr/userfs/r/rs1019/iapt/web2py/applications/BootUp/sessions/191/1f6/127.0.0.1-f1ec12bf-3c97-4f3e-a239-b604f7945776&#x27;, mode &#x27;rb+&#x27; at 0x7f09309d9e40&gt;</div></td></tr><tr><td style="font-weight:bold;vertical-align:top;">session_filename</td><td style="vertical-align:top;">:</td><td><div>/usr/userfs/r/rs1019/iapt/web2py/applications/BootUp/sessions/127.0.0.1-f1ec12bf-3c97-4f3e-a239-b604f7945776</div></td></tr><tr><td style="font-weight:bold;vertical-align:top;">session_hash</td><td style="vertical-align:top;">:</td><td><div>20b662d0529effa5ee178e103c66d602</div></td></tr><tr><td style="font-weight:bold;vertical-align:top;">session_id</td><td style="vertical-align:top;">:</td><td><div>127.0.0.1-f1ec12bf-3c97-4f3e-a239-b604f7945776</div></td></tr><tr><td style="font-weight:bold;vertical-align:top;">session_id_name</td><td style="vertical-align:top;">:</td><td><div>session_id_bootup</div></td></tr><tr><td style="font-weight:bold;vertical-align:top;">session_locked</td><td style="vertical-align:top;">:</td><td><div>True</div></td></tr><tr><td style="font-weight:bold;vertical-align:top;">session_masterapp</td><td style="vertical-align:top;">:</td><td><div>BootUp</div></td></tr><tr><td style="font-weight:bold;vertical-align:top;">session_new</td><td style="vertical-align:top;">:</td><td><div>False</div></td></tr><tr><td style="font-weight:bold;vertical-align:top;">session_storage_type</td><td style="vertical-align:top;">:</td><td><div>file</div></td></tr><tr><td style="font-weight:bold;vertical-align:top;">status</td><td style="vertical-align:top;">:</td><td><div>200</div></td></tr><tr><td style="font-weight:bold;vertical-align:top;">subtitle</td><td style="vertical-align:top;">:</td><td><div></div></td></tr><tr><td style="font-weight:bold;vertical-align:top;">title</td><td style="vertical-align:top;">:</td><td><div>Bootup</div></td></tr><tr><td style="font-weight:bold;vertical-align:top;">view</td><td style="vertical-align:top;">:</td><td><div>profile/rewards.html</div></td></tr></table></div>'
tRp293
sS'locals'
p294
(dp295
S'a'
S"('SELECT  auth_user.id, auth_user.first_name, auth...ails_id FROM auth_user WHERE (auth_user.id = 16);',)"
p296
sS'self'
p297
S'<gluon.dal.SQLiteAdapter object>'
p298
sS'b'
g21
sS'command'
p299
S"'SELECT  auth_user.id, auth_user.first_name, auth...ails_id FROM auth_user WHERE (auth_user.id = 16);'"
p300
sS't0'
p301
S'1416860089.145766'
p302
sssS'traceback'
p303
S'Traceback (most recent call last):\n  File "/usr/userfs/r/rs1019/iapt/web2py/gluon/restricted.py", line 224, in restricted\n    exec ccode in environment\n  File "/usr/userfs/r/rs1019/iapt/web2py/applications/BootUp/controllers/profile.py", line 485, in <module>\n  File "/usr/userfs/r/rs1019/iapt/web2py/gluon/globals.py", line 392, in <lambda>\n    self._caller = lambda f: f()\n  File "/usr/userfs/r/rs1019/iapt/web2py/applications/BootUp/controllers/profile.py", line 459, in rewards\n    user = (db(db.auth_user.id == auth._get_user_id()).select()).first()\n  File "/usr/userfs/r/rs1019/iapt/web2py/gluon/dal.py", line 10749, in select\n    return adapter.select(self.query, fields, attributes)\n  File "/usr/userfs/r/rs1019/iapt/web2py/gluon/dal.py", line 2472, in select\n    return super(SQLiteAdapter, self).select(query, fields, attributes)\n  File "/usr/userfs/r/rs1019/iapt/web2py/gluon/dal.py", line 1881, in select\n    return self._select_aux(sql, fields, attributes)\n  File "/usr/userfs/r/rs1019/iapt/web2py/gluon/dal.py", line 1846, in _select_aux\n    self.execute(sql)\n  File "/usr/userfs/r/rs1019/iapt/web2py/gluon/dal.py", line 1967, in execute\n    return self.log_execute(*a, **b)\n  File "/usr/userfs/r/rs1019/iapt/web2py/gluon/dal.py", line 1961, in log_execute\n    ret = self.cursor.execute(command, *a[1:], **b)\nOperationalError: no such table: auth_user\n'
p304
s.