(dp1
S'output'
p2
S"<class 'pysqlite2.dbapi2.OperationalError'> no such table: auth_user"
p3
sS'layer'
p4
S'/usr/userfs/r/rs1019/iapt/web2py/applications/BootUp/controllers/default.py'
p5
sS'code'
p6
S'# -*- coding: utf-8 -*-\n# this file is released under public domain and you can use without limitations\n\n#########################################################################\n## This is a sample controller\n## - index is the default action of any application\n## - user is required for authentication and authorization\n## - download is for downloading files uploaded in the db (does streaming)\n## - api is an example of Hypermedia API support and access control\n#########################################################################\n\n\nCOUNTRIES=( \'United Kingdom\', \'United States\', \'Afghanistan\', \'Albania\', \'Algeria\', \'Andorra\', \'Angola\', \'Antigua and Barbuda\', \'Argentina\', \'Armenia\', \'Australia\', \'Austria\', \'Azerbaijan\', \'Bahamas\', \'Bahrain\', \'Bangladesh\', \'Barbados\', \'Belarus\', \'Belgium\', \'Belize\', \'Benin\', \'Bhutan\', \'Bolivia\', \'Bosnia and Herzegovina\', \'Botswana\', \'Brazil\', \'Brunei\', \'Bulgaria\', \'Burkina Faso\', \'Burundi\', \'Cambodia\', \'Cameroon\', \'Canada\', \'Cape Verde\', \'Central African Republic\', \'Chad\', \'Chile\', \'China\', \'Colombia\', \'Comoros\', \'Congo\', \'Costa Rica\', \'Ivory Coast\', \'Croatia\', \'Cuba\', \'Cyprus\', \'Czech Republic\', \'Denmark\', \'Djibouti\', \'Dominica\', \'Dominican Republic\', \'East Timor\', \'Ecuador\', \'Egypt\', \'El Salvador\', \'Equatorial Guinea\', \'Eritrea\', \'Estonia\', \'Ethiopia\', \'Fiji\', \'Finland\', \'France\', \'Gabon\', \'Gambia\', \'Georgia\', \'Germany\', \'Ghana\', \'Greece\', \'Grenada\', \'Guatemala\', \'Guinea\', \'Guinea-Bissau\', \'Guyana\', \'Haiti\', \'Honduras\', \'Hong Kong\', \'Hungary\', \'Iceland\', \'India\', \'Indonesia\', \'Iran\', \'Iraq\', \'Ireland\', \'Israel\', \'Italy\', \'Jamaica\', \'Japan\', \'Jordan\', \'Kazakhstan\', \'Kenya\', \'Kiribati\', \'North Korea\',\'South Korea\', \'Kuwait\', \'Kyrgyzstan\', \'Laos\', \'Latvia\', \'Lebanon\', \'Lesotho\', \'Liberia\', \'Libya\', \'Liechtenstein\', \'Lithuania\', \'Luxembourg\', \'FYROM\', \'Madagascar\', \'Malawi\', \'Malaysia\', \'Maldives\', \'Mali\', \'Malta\', \'Marshall Islands\', \'Mauritania\', \'Mauritius\', \'Mexico\', \'Micronesia\', \'Moldova\', \'Monaco\', \'Mongolia\', \'Montenegro\', \'Morocco\', \'Mozambique\', \'Myanmar\', \'Namibia\', \'Nauru\', \'Nepal\', \'Netherlands\', \'New Zealand\', \'Nicaragua\', \'Niger\', \'Nigeria\', \'Norway\', \'Oman\', \'Pakistan\', \'Palau\', \'Palestine\', \'Panama\', \'Papua New Guinea\', \'Paraguay\', \'Peru\', \'Philippines\', \'Poland\', \'Portugal\', \'Puerto Rico\', \'Qatar\', \'Romania\', \'Russia\', \'Rwanda\', \'Saint Kitts and Nevis\', \'Saint Lucia\', \'Saint Vincent and the Grenadines\', \'Samoa\', \'San Marino\', \'Sao Tome and Principe\', \'Saudi Arabia\', \'Senegal\', \'Serbia and Montenegro\', \'Seychelles\', \'Sierra Leone\', \'Singapore\', \'Slovakia\', \'Slovenia\', \'Solomon Islands\', \'Somalia\', \'South Africa\', \'Spain\', \'Sri Lanka\', \'Sudan\', \'Suriname\', \'Swaziland\', \'Sweden\', \'Switzerland\', \'Syria\', \'Taiwan\', \'Tajikistan\', \'Tanzania\', \'Thailand\', \'Togo\', \'Tonga\', \'Trinidad and Tobago\', \'Tunisia\', \'Turkey\', \'Turkmenistan\', \'Tuvalu\', \'Uganda\', \'Ukraine\', \'United Arab Emirates\', \'Uruguay\', \'Uzbekistan\', \'Vanuatu\', \'Vatican City\', \'Venezuela\', \'Vietnam\', \'Yemen\', \'Zambia\', \'Zimbabwe\', \'Other\')\nyears = []\nmonths = [ \'01\', \'02\', \'03\', \'04\', \'05\', \'06\', \'07\', \'08\', \'09\', \'10\', \'11\', \'12\' ]\n\nfor i in xrange(100):\n    if i < 10:\n        number = \'0\' + str(i)\n    else:\n        number = str(i)\n\n    years.append(number)\n\n\ndef index():\n    """\n    example action using the internationalization operator T and flash\n    rendered by views/default/index.html or views/generic.html\n\n    if you need a simple wiki simply replace the two lines below with:\n    return auth.wiki()\n    """\n\n    response.flash = T("Welcome to web2py!")\n    return dict(message=T(\'Hello World\'))\n\ndef login():\n\n\n    form = FORM(LEGEND(\'Login\'), INPUT(_type=\'text\', _name=\'username\', _class = \'input-block-level\', _placeholder=\'username\', requires=IS_NOT_EMPTY( error_message=T("Please enter a username"))),\n                 INPUT(_type=\'password\',_name=\'password\', _class = \'input-block-level\', _placeholder=\'password\', requires=IS_NOT_EMPTY(error_message=T("Please enter a password"))), INPUT(_type=\'submit\', _class=\'btn btn-primary\', _value=\'Login\'),\n                 A(\'Register\',_href=URL(\'register\'), _role=\'button\', _class=\'btn btn-info\'))\n\n    if form.process(onvalidation=login_validation).accepted:\n        response.flash = \'form accepted\'\n        user = auth.login_bare(request.vars.username, request.vars.password)\n        if(user is False):\n            response.flash = DIV("Invalid Username/Password Combination", _class=\'alert alert-error\')\n        else:\n            redirect(URL(\'index\'))\n    elif form.errors:\n        response.flash = DIV("Username or Password field is empty", _class=\'alert alert-error\')\n\n\n\n\n    return dict(form=form)\n\ndef login_validation(form):\n    if form.vars.username =="cat":\n        form.errors.username= "Hello Cat"\n    if form.vars.password == None:\n        form.errors.password = "Password can not be empty"\n\n\ndef register():\n\n\n    form= FORM(FIELDSET(\n\n                        LEGEND(\'Personal Information\'),\n                        DIV(LABEL(\'First Name:\', _for=\'first_name\'),INPUT(_id=\'first_name\', _name=\'first_name\', _type=\'text\', _class=\'span4\',requires=IS_NOT_EMPTY(error_message=T("Field cannot be left empty"))),\n                            LABEL(\'Last Name:\', _for=\'last_name\'),INPUT(_id=\'last_name\', _name=\'last_name\', _type=\'text\', _class=\'span4\',requires=IS_NOT_EMPTY(error_message=T("Field cannot be left empty")))\n                            ,_class=\'controls control-group\'),\n\n\n                        DIV( LABEL(\'Date of Birth:\'),\n                             INPUT( _name=\'dob\', _type=\'date\', _class=\'span4\', _placeholder=\'yyyy\',requires=IS_NOT_EMPTY(error_message=T("Field cannot be left empty")))\n                             ,_class="controls controls-row"),\n\n                        LEGEND(\'Login Credentials\'),\n                        DIV(LABEL(\'Username:\', _for=\'username\'),INPUT(_id=\'username\', _name=\'username\', _type=\'text\', _class=\'span4\',requires=[IS_NOT_EMPTY(error_message=T("Field cannot be left empty")), IS_NOT_IN_DB(db, \'auth_user.username\', error_message=\'Username already taken\')]),\n                            LABEL(\'Password:\', _for=\'password\'),INPUT(_id=\'password\', _name=\'password\', _type=\'password\', _class=\'span4\',requires=IS_NOT_EMPTY(error_message=T("Field cannot be left empty"))),\n                            LABEL(\'Confirm Password:\', _for=\'confirm_password\'),INPUT(_id=\'confirm_password\', _name=\'confirm_password\', _type=\'password\', _class=\'span4\'\n                            , requires=[IS_EQUAL_TO(request.vars.password, error_message=T("Passwords do not match")), IS_NOT_EMPTY(error_message=T("Field cannot be left empty"))])\n                            ,_class=\'controls control-group\'),\n\n                        LEGEND(\'Home Address\'),\n                        DIV(LABEL(\'Street:\', _for=\'street\'),INPUT(_id=\'street\', _name=\'street\', _type=\'text\', _class=\'span4\',requires=IS_NOT_EMPTY(error_message=T("Field cannot be left empty"))),\n                            LABEL(\'City:\', _for=\'city\'),INPUT(_id=\'city\', _name=\'city\', _type=\'text\', _class=\'span4\',requires=IS_NOT_EMPTY(error_message=T("Field cannot be left empty"))),\n                            LABEL(\'Postcode:\', _for=\'postcode\'),INPUT(_id=\'postcode\', _name=\'postcode\', _type=\'text\', _class=\'span4\',requires=[IS_NOT_EMPTY(error_message=T("Field cannot be left empty")),\n                            IS_MATCH(\'^[A-Z0-9]{4} [A-Z0-9]{3}$\', error_message="Postcode is not valid" )]),\n                            LABEL(\'Country:\', _for=\'country\'),SELECT(*COUNTRIES, _id=\'country\', _name=\'country\',requires=[IS_NOT_EMPTY(error_message=T("Field cannot be left empty")), IS_IN_SET(COUNTRIES)])\n                            ,_class=\'controls control-group\'),\n\n                        LEGEND(\'Billing Information\'),\n                        DIV(LABEL(\'Card Number:\', _for=\'card_number\'),INPUT(_id=\'card_number\', _name=\'card_number\', _type=\'text\', _class=\'span4\', requires=[IS_NOT_EMPTY(error_message=T("Field cannot be left empty")),\n                            IS_LENGTH(minsize=12, maxsize=12, error_message="Card number must be 12 digits long"), IS_MATCH(\'^[0-9]{12,12}$\', error_message="Card number must be 12 digits long" )]),\n                            LABEL(\'Security Code:\', _for=\'security_code\'),INPUT(_id=\'security_code\', _name=\'security_code\', _type=\'text\', _class=\'span4\',requires=[IS_NOT_EMPTY(error_message=T("Field cannot be left empty")),\n                            IS_LENGTH(minsize=3, maxsize=3, error_message="Security code contain 3 numbers"), IS_MATCH(\'^[0-9]{3}$\', error_message=\'Security code must contain 3 numbers\')])\n                            ,_class=\'controls control-group\'),\n\n                        DIV(\n                            LABEL(\'Expiry Date:\'),\n                            SELECT(*months, _value=\'mm\', _name=\'expiry_date_month\', _id=\'expiry_date_month\'),\n                            SPAN(\' / \'),\n                            SELECT(*years, _value=\'yy\', _name=\'expiry_date_year\', _id=\'expiry_date_year\')\n                            , _class=\'controls controls-row\'),\n\n                        LEGEND(\'Billing Address\'),\n                        DIV(LABEL(INPUT(_id=\'billing_checkbox\', _name=\'billing_checkbox\', _value=\'yes\', _onclick=\'javascript:toggleAddressAvailibility();\', _type=\'checkbox\' ), \'Same as Home Address\',_class=\'checkbox\'),\n                            DIV(LABEL(\'Street:\', _for=\'billing_street\'),INPUT( _name=\'billing_street\', _type=\'text\', _class=\'span4\'), _id=\'billing_street\'),\n                            DIV(LABEL(\'City:\', _for=\'billing_city\'),INPUT( _name=\'billing_city\', _type=\'text\', _class=\'span4\'), _id=\'billing_city\'),\n                            DIV(LABEL(\'Postcode:\', _for=\'billing_postcode\'),INPUT( _name=\'billing_postcode\', _type=\'text\', _class=\'span4\'), _id=\'billing_postcode\'),\n                            DIV(LABEL(\'Country:\', _for=\'billing_country\' ),INPUT( _name=\'billing_country\', _type=\'text\', _class=\'span4\'), _id=\'billing_country\')\n                            ,_class=\'controls control-group last_form_section\'),\n\n                         INPUT(_type=\'submit\', _class=\'btn btn-primary btn-large\', _value=\'Register\')\n\n\n    ))\n\n\n\n\n\n    if form.process(onvalidation=register_validation).accepted:\n\n        expiry_date = request.vars.expiry_date_month + "/" + request.vars.expiry_date_year\n\n\n        addressAlreadyInDBQuery = db((db.address.street == request.vars.street) & (db.address.city == request.vars.city) & (db.address.country == request.vars.country) &(db.address.postcode == request.vars.postcode)).select()\n\n        if(len(addressAlreadyInDBQuery) >0):\n            address = addressAlreadyInDBQuery[0].id\n        else:\n            address = db.address.insert(street = request.vars.street, city = request.vars.city, country = request.vars.country,\n                        postcode = request.vars.postcode)\n\n        bankDetailsAlreadyInDBQuery = db(db.bank_details.card_number == request.vars.card_number).select()\n\n\n        if(len( bankDetailsAlreadyInDBQuery) >0):\n            bank_details = bankDetailsAlreadyInDBQuery[0].id\n\n        else:\n\n            if(request.vars.billing_checkbox == \'yes\'):\n                bank_details = db.bank_details.insert(card_number = request.vars.card_number, security_code = request.vars.security_code,\n                                              address_id = address, expiry_date = expiry_date)\n\n            else:\n                billingAddressAlreadyInDBQuery = db((db.address.street ==request.vars.billing_street) & (db.address.city == request.vars.billing_city)\n                                             & (db.address.country == request.vars.billing_country) &\n                                            (db.address.postcode == request.vars.billing_postcode)).select()\n\n                if(len(billingAddressAlreadyInDBQuery) >0):\n                    bank_address = billingAddressAlreadyInDBQuery[0].id\n                else:\n                    bank_address = db.address.insert(street = request.vars.billing_street, city = request.vars.billing_city, country = request.vars.billing_country,\n                                    postcode = request.vars.billing_postcode)\n\n\n\n                bank_details = db.bank_details.insert(card_number = request.vars.card_number, security_code = request.vars.security_code,\n                                                  address_id = bank_address, expiry_date = request.vars.expiry_date)\n\n\n\n\n\n\n\n        db.auth_user.insert(username = request.vars.username, password = db.auth_user.password.validate(request.vars.password)[0],\n                       first_name = request.vars.first_name, last_name = request.vars.last_name, birthdate = request.vars.dob, bank_details_id = bank_details,\n                       address_id = address)\n\n\n        auth.login_bare(request.vars.username, request.vars.password)\n\n        redirect(URL(\'profile\',\'profile\'))\n\n\n    return dict(form=form)\n\ndef register_validation(form):\n    if form.vars.billing_checkbox != "yes":\n        if form.vars.billing_street =="":\n            form.errors.billing_street = "Street must be entered"\n\n        if form.vars.billing_city =="":\n            form.errors.billing_city = "City must be entered"\n\n        if form.vars.billing_country =="":\n            form.errors.billing_country = "Country must be entered"\n\n        if form.vars.billing_postcode =="":\n            form.errors.billing_postcode = "Postcode must be entered"\n\n    if form.vars.expiry_date_month not in months or form.vars.expiry_date_year not in years:\n        form.errors.expiry_date_year = "Expiry Date must be entered"\n\n\n\ndef user():\n    """\n    exposes:\n    http://..../[app]/default/user/login\n    http://..../[app]/default/user/logout\n    http://..../[app]/default/user/register\n    http://..../[app]/default/user/profile\n    http://..../[app]/default/user/retrieve_password\n    http://..../[app]/default/user/change_password\n    http://..../[app]/default/user/manage_users (requires membership in\n    use @auth.requires_login()\n        @auth.requires_membership(\'group name\')\n        @auth.requires_permission(\'read\',\'table name\',record_id)\n    to decorate functions that need access control\n    """\n    return dict(form=auth())\n\n\n@cache.action()\ndef download():\n    """\n    allows downloading of uploaded files\n    http://..../[app]/default/download/[filename]\n    """\n    return response.download(request, db)\n\n\ndef call():\n    """\n    exposes services. for example:\n    http://..../[app]/default/call/jsonrpc\n    decorate with @services.jsonrpc the functions to expose\n    supports xml, json, xmlrpc, jsonrpc, amfrpc, rss, csv\n    """\n    return service()\n\n\n@auth.requires_login() \ndef api():\n    """\n    this is example of API with access control\n    WEB2PY provides Hypermedia API (Collection+JSON) Experimental\n    """\n    from gluon.contrib.hypermedia import Collection\n    rules = {\n        \'<tablename>\': {\'GET\':{},\'POST\':{},\'PUT\':{},\'DELETE\':{}},\n        }\n    return Collection(db).process(request,response,rules)\n\nresponse._vars=response._caller(login)\n'
p7
sS'snapshot'
p8
(dp9
S'exception'
p10
(dp11
S'__module__'
p12
S"'pysqlite2.dbapi2'"
p13
sS'__getslice__'
p14
S"<method-wrapper '__getslice__' of OperationalError object>"
p15
sS'__str__'
p16
S"<method-wrapper '__str__' of OperationalError object>"
p17
sS'__reduce__'
p18
S'<built-in method __reduce__ of OperationalError object>'
p19
sS'__dict__'
p20
S'{}'
p21
sS'__sizeof__'
p22
S'<built-in method __sizeof__ of OperationalError object>'
p23
sS'__weakref__'
p24
S'None'
p25
sS'__init__'
p26
S"<method-wrapper '__init__' of OperationalError object>"
p27
sS'__setattr__'
p28
S"<method-wrapper '__setattr__' of OperationalError object>"
p29
sS'__reduce_ex__'
p30
S'<built-in method __reduce_ex__ of OperationalError object>'
p31
sS'__new__'
p32
S'<built-in method __new__ of type object>'
p33
sS'__format__'
p34
S'<built-in method __format__ of OperationalError object>'
p35
sS'__class__'
p36
S"<class 'pysqlite2.dbapi2.OperationalError'>"
p37
sS'__doc__'
p38
S'None'
p39
sS'__getitem__'
p40
S"<method-wrapper '__getitem__' of OperationalError object>"
p41
sS'__setstate__'
p42
S'<built-in method __setstate__ of OperationalError object>'
p43
sS'__getattribute__'
p44
S"<method-wrapper '__getattribute__' of OperationalError object>"
p45
sS'args'
p46
S"('no such table: auth_user',)"
p47
sS'__subclasshook__'
p48
S'<built-in method __subclasshook__ of type object>'
p49
sS'__unicode__'
p50
S'<built-in method __unicode__ of OperationalError object>'
p51
sS'__delattr__'
p52
S"<method-wrapper '__delattr__' of OperationalError object>"
p53
sS'__repr__'
p54
S"<method-wrapper '__repr__' of OperationalError object>"
p55
sS'__hash__'
p56
S"<method-wrapper '__hash__' of OperationalError object>"
p57
ssS'evalue'
p58
S'no such table: auth_user'
p59
sS'request'
p60
cgluon.html
XML_unpickle
p61
(S's\xedd\x00\x00<div><table><tr><td style="font-weight:bold;vertical-align:top;">ajax</td><td style="vertical-align:top;">:</td><td><div>False</div></td></tr><tr><td style="font-weight:bold;vertical-align:top;">application</td><td style="vertical-align:top;">:</td><td><div>BootUp</div></td></tr><tr><td style="font-weight:bold;vertical-align:top;">args</td><td style="vertical-align:top;">:</td><td><div><table></table></div></td></tr><tr><td style="font-weight:bold;vertical-align:top;">cid</td><td style="vertical-align:top;">:</td><td><div>None</div></td></tr><tr><td style="font-weight:bold;vertical-align:top;">client</td><td style="vertical-align:top;">:</td><td><div>127.0.0.1</div></td></tr><tr><td style="font-weight:bold;vertical-align:top;">controller</td><td style="vertical-align:top;">:</td><td><div>default</div></td></tr><tr><td style="font-weight:bold;vertical-align:top;">cookies</td><td style="vertical-align:top;">:</td><td><div><table><tr><td style="font-weight:bold;vertical-align:top;">session_id_admin</td><td style="vertical-align:top;">:</td><td><div>127.0.0.1-7a3df428-1481-441b-8abf-dd1d8b3140c7<table><tr><td style="font-weight:bold;vertical-align:top;">comment</td><td style="vertical-align:top;">:</td><td><div></div></td></tr><tr><td style="font-weight:bold;vertical-align:top;">domain</td><td style="vertical-align:top;">:</td><td><div></div></td></tr><tr><td style="font-weight:bold;vertical-align:top;">expires</td><td style="vertical-align:top;">:</td><td><div></div></td></tr><tr><td style="font-weight:bold;vertical-align:top;">httponly</td><td style="vertical-align:top;">:</td><td><div></div></td></tr><tr><td style="font-weight:bold;vertical-align:top;">max-age</td><td style="vertical-align:top;">:</td><td><div></div></td></tr><tr><td style="font-weight:bold;vertical-align:top;">path</td><td style="vertical-align:top;">:</td><td><div></div></td></tr><tr><td style="font-weight:bold;vertical-align:top;">secure</td><td style="vertical-align:top;">:</td><td><div></div></td></tr><tr><td style="font-weight:bold;vertical-align:top;">version</td><td style="vertical-align:top;">:</td><td><div></div></td></tr></table></div></td></tr><tr><td style="font-weight:bold;vertical-align:top;">session_id_bootup</td><td style="vertical-align:top;">:</td><td><div>127.0.0.1-2784d2b5-a3de-4957-8571-5e580bbdd450<table><tr><td style="font-weight:bold;vertical-align:top;">comment</td><td style="vertical-align:top;">:</td><td><div></div></td></tr><tr><td style="font-weight:bold;vertical-align:top;">domain</td><td style="vertical-align:top;">:</td><td><div></div></td></tr><tr><td style="font-weight:bold;vertical-align:top;">expires</td><td style="vertical-align:top;">:</td><td><div></div></td></tr><tr><td style="font-weight:bold;vertical-align:top;">httponly</td><td style="vertical-align:top;">:</td><td><div></div></td></tr><tr><td style="font-weight:bold;vertical-align:top;">max-age</td><td style="vertical-align:top;">:</td><td><div></div></td></tr><tr><td style="font-weight:bold;vertical-align:top;">path</td><td style="vertical-align:top;">:</td><td><div></div></td></tr><tr><td style="font-weight:bold;vertical-align:top;">secure</td><td style="vertical-align:top;">:</td><td><div></div></td></tr><tr><td style="font-weight:bold;vertical-align:top;">version</td><td style="vertical-align:top;">:</td><td><div></div></td></tr></table></div></td></tr><tr><td style="font-weight:bold;vertical-align:top;">session_id_welcome</td><td style="vertical-align:top;">:</td><td><div>127.0.0.1-81d337cb-6f61-48f4-9aff-32f75feb8c7d<table><tr><td style="font-weight:bold;vertical-align:top;">comment</td><td style="vertical-align:top;">:</td><td><div></div></td></tr><tr><td style="font-weight:bold;vertical-align:top;">domain</td><td style="vertical-align:top;">:</td><td><div></div></td></tr><tr><td style="font-weight:bold;vertical-align:top;">expires</td><td style="vertical-align:top;">:</td><td><div></div></td></tr><tr><td style="font-weight:bold;vertical-align:top;">httponly</td><td style="vertical-align:top;">:</td><td><div></div></td></tr><tr><td style="font-weight:bold;vertical-align:top;">max-age</td><td style="vertical-align:top;">:</td><td><div></div></td></tr><tr><td style="font-weight:bold;vertical-align:top;">path</td><td style="vertical-align:top;">:</td><td><div></div></td></tr><tr><td style="font-weight:bold;vertical-align:top;">secure</td><td style="vertical-align:top;">:</td><td><div></div></td></tr><tr><td style="font-weight:bold;vertical-align:top;">version</td><td style="vertical-align:top;">:</td><td><div></div></td></tr></table></div></td></tr></table></div></td></tr><tr><td style="font-weight:bold;vertical-align:top;">env</td><td style="vertical-align:top;">:</td><td><div><table><tr><td style="font-weight:bold;vertical-align:top;">CONTENT_LENGTH</td><td style="vertical-align:top;">:</td><td><div>480</div></td></tr><tr><td style="font-weight:bold;vertical-align:top;">CONTENT_TYPE</td><td style="vertical-align:top;">:</td><td><div>multipart/form-data; boundary=----WebKitFormBoundaryTEQhxGHRJjDwp5Sj</div></td></tr><tr><td style="font-weight:bold;vertical-align:top;">HTTP_ACCEPT</td><td style="vertical-align:top;">:</td><td><div>text/html,application/xhtml+xml,application/xml;q=0.9,image/webp,*/*;q=0.8</div></td></tr><tr><td style="font-weight:bold;vertical-align:top;">HTTP_ACCEPT_ENCODING</td><td style="vertical-align:top;">:</td><td><div>gzip, deflate</div></td></tr><tr><td style="font-weight:bold;vertical-align:top;">HTTP_ACCEPT_LANGUAGE</td><td style="vertical-align:top;">:</td><td><div>en-GB,en-US;q=0.8,en;q=0.6</div></td></tr><tr><td style="font-weight:bold;vertical-align:top;">HTTP_CACHE_CONTROL</td><td style="vertical-align:top;">:</td><td><div>max-age=0</div></td></tr><tr><td style="font-weight:bold;vertical-align:top;">HTTP_CONNECTION</td><td style="vertical-align:top;">:</td><td><div>keep-alive</div></td></tr><tr><td style="font-weight:bold;vertical-align:top;">HTTP_CONTENT_LENGTH</td><td style="vertical-align:top;">:</td><td><div>480</div></td></tr><tr><td style="font-weight:bold;vertical-align:top;">HTTP_CONTENT_TYPE</td><td style="vertical-align:top;">:</td><td><div>multipart/form-data; boundary=----WebKitFormBoundaryTEQhxGHRJjDwp5Sj</div></td></tr><tr><td style="font-weight:bold;vertical-align:top;">HTTP_COOKIE</td><td style="vertical-align:top;">:</td><td><div>session_id_welcome=127.0.0.1-81d337cb-6f61-48f4-9aff-32f75feb8c7d; session_id_admin=127.0.0.1-7a3df428-1481-441b-8abf-dd1d8b3140c7; session_id_bootup=127.0.0.1-2784d2b5-a3de-4957-8571-5e580bbdd450</div></td></tr><tr><td style="font-weight:bold;vertical-align:top;">HTTP_HOST</td><td style="vertical-align:top;">:</td><td><div>127.0.0.1:8000</div></td></tr><tr><td style="font-weight:bold;vertical-align:top;">HTTP_ORIGIN</td><td style="vertical-align:top;">:</td><td><div>http://127.0.0.1:8000</div></td></tr><tr><td style="font-weight:bold;vertical-align:top;">HTTP_REFERER</td><td style="vertical-align:top;">:</td><td><div>http://127.0.0.1:8000/BootUp/default/login</div></td></tr><tr><td style="font-weight:bold;vertical-align:top;">HTTP_USER_AGENT</td><td style="vertical-align:top;">:</td><td><div>Mozilla/5.0 (X11; Linux x86_64) AppleWebKit/537.36 (KHTML, like Gecko) Chrome/39.0.2171.65 Safari/537.36</div></td></tr><tr><td style="font-weight:bold;vertical-align:top;">PATH_INFO</td><td style="vertical-align:top;">:</td><td><div>/BootUp/default/login</div></td></tr><tr><td style="font-weight:bold;vertical-align:top;">QUERY_STRING</td><td style="vertical-align:top;">:</td><td><div></div></td></tr><tr><td style="font-weight:bold;vertical-align:top;">REMOTE_ADDR</td><td style="vertical-align:top;">:</td><td><div>127.0.0.1</div></td></tr><tr><td style="font-weight:bold;vertical-align:top;">REMOTE_PORT</td><td style="vertical-align:top;">:</td><td><div>52631</div></td></tr><tr><td style="font-weight:bold;vertical-align:top;">REQUEST_METHOD</td><td style="vertical-align:top;">:</td><td><div>POST</div></td></tr><tr><td style="font-weight:bold;vertical-align:top;">SCRIPT_NAME</td><td style="vertical-align:top;">:</td><td><div></div></td></tr><tr><td style="font-weight:bold;vertical-align:top;">SERVER_NAME</td><td style="vertical-align:top;">:</td><td><div>pc975s</div></td></tr><tr><td style="font-weight:bold;vertical-align:top;">SERVER_PORT</td><td style="vertical-align:top;">:</td><td><div>8000</div></td></tr><tr><td style="font-weight:bold;vertical-align:top;">SERVER_PROTOCOL</td><td style="vertical-align:top;">:</td><td><div>HTTP/1.1</div></td></tr><tr><td style="font-weight:bold;vertical-align:top;">SERVER_SOFTWARE</td><td style="vertical-align:top;">:</td><td><div>Rocket 1.2.6</div></td></tr><tr><td style="font-weight:bold;vertical-align:top;">app_folders</td><td style="vertical-align:top;">:</td><td><div>set([&#x27;/usr/userfs/r/rs1019/iapt/web2py/applications/admin/&#x27;, &#x27;/usr/userfs/r/rs1019/iapt/web2py/applications/welcome/&#x27;, &#x27;/usr/userfs/r/rs1019/iapt/web2py/applications/copied/&#x27;, &#x27;/usr/userfs/r/rs1019/iapt/web2py/applications/BootUp/&#x27;, &#x27;/usr/userfs/r/rs1019/iapt/web2py/applications/CongoWithBootstrap/&#x27;])</div></td></tr><tr><td style="font-weight:bold;vertical-align:top;">applications_parent</td><td style="vertical-align:top;">:</td><td><div>/usr/userfs/r/rs1019/iapt/web2py</div></td></tr><tr><td style="font-weight:bold;vertical-align:top;">cmd_args</td><td style="vertical-align:top;">:</td><td><div><table></table></div></td></tr><tr><td style="font-weight:bold;vertical-align:top;">cmd_options</td><td style="vertical-align:top;">:</td><td><div>&lt;Values at 0x7f096221a440: {&#x27;verbose&#x27;: False, &#x27;ip&#x27;: &#x27;127.0.0.1&#x27;, &#x27;debuglevel&#x27;: 30, &#x27;with_scheduler&#x27;: False, &#x27;ips&#x27;: [&#x27;144.32.179.175&#x27;], &#x27;shutdown_timeout&#x27;: 5, &#x27;taskbar&#x27;: False, &#x27;with_coverage&#x27;: False, &#x27;scheduler_groups&#x27;: None, &#x27;port&#x27;: 8000, &#x27;maxthreads&#x27;: None, &#x27;softcron&#x27;: False, &#x27;server_name&#x27;: &#x27;pc975s&#x27;, &#x27;bpython&#x27;: False, &#x27;nogui&#x27;: False, &#x27;pid_filename&#x27;: &#x27;httpserver.pid&#x27;, &#x27;extcron&#x27;: False, &#x27;runcron&#x27;: False, &#x27;run_system_tests&#x27;: False, &#x27;test&#x27;: None, &#x27;folder&#x27;: &#x27;/usr/userfs/r/rs1019/iapt/web2py&#x27;, &#x27;config&#x27;: &#x27;&#x27;, &#x27;minthreads&#x27;: None, &#x27;shell&#x27;: None, &#x27;run&#x27;: &#x27;&#x27;, &#x27;log_filename&#x27;: &#x27;httpserver.log&#x27;, &#x27;profiler_dir&#x27;: None, &#x27;args&#x27;: [&#x27;&#x27;], &#x27;socket_timeout&#x27;: 5, &#x27;ssl_ca_certificate&#x27;: None, &#x27;scheduler&#x27;: None, &#x27;interfaces&#x27;: None, &#x27;ssl_private_key&#x27;: &#x27;&#x27;, &#x27;gae&#x27;: None, &#x27;password&#x27;: &#x27;&lt;ask&gt;&#x27;, &#x27;request_queue_size&#x27;: 5, &#x27;ssl_certificate&#x27;: &#x27;&#x27;, &#x27;cronjob&#x27;: False, &#x27;numthreads&#x27;: None, &#x27;quiet&#x27;: False, &#x27;import_models&#x27;: False, &#x27;timeout&#x27;: 10, &#x27;plain&#x27;: False, &#x27;nobanner&#x27;: False}&gt;</div></td></tr><tr><td style="font-weight:bold;vertical-align:top;">content_length</td><td style="vertical-align:top;">:</td><td><div>480</div></td></tr><tr><td style="font-weight:bold;vertical-align:top;">content_type</td><td style="vertical-align:top;">:</td><td><div>multipart/form-data; boundary=----WebKitFormBoundaryTEQhxGHRJjDwp5Sj</div></td></tr><tr><td style="font-weight:bold;vertical-align:top;">db_sessions</td><td style="vertical-align:top;">:</td><td><div>set([])</div></td></tr><tr><td style="font-weight:bold;vertical-align:top;">debugging</td><td style="vertical-align:top;">:</td><td><div>False</div></td></tr><tr><td style="font-weight:bold;vertical-align:top;">gluon_parent</td><td style="vertical-align:top;">:</td><td><div>/usr/userfs/r/rs1019/iapt/web2py</div></td></tr><tr><td style="font-weight:bold;vertical-align:top;">http_accept</td><td style="vertical-align:top;">:</td><td><div>text/html,application/xhtml+xml,application/xml;q=0.9,image/webp,*/*;q=0.8</div></td></tr><tr><td style="font-weight:bold;vertical-align:top;">http_accept_encoding</td><td style="vertical-align:top;">:</td><td><div>gzip, deflate</div></td></tr><tr><td style="font-weight:bold;vertical-align:top;">http_accept_language</td><td style="vertical-align:top;">:</td><td><div>en-GB,en-US;q=0.8,en;q=0.6</div></td></tr><tr><td style="font-weight:bold;vertical-align:top;">http_cache_control</td><td style="vertical-align:top;">:</td><td><div>max-age=0</div></td></tr><tr><td style="font-weight:bold;vertical-align:top;">http_connection</td><td style="vertical-align:top;">:</td><td><div>keep-alive</div></td></tr><tr><td style="font-weight:bold;vertical-align:top;">http_content_length</td><td style="vertical-align:top;">:</td><td><div>480</div></td></tr><tr><td style="font-weight:bold;vertical-align:top;">http_content_type</td><td style="vertical-align:top;">:</td><td><div>multipart/form-data; boundary=----WebKitFormBoundaryTEQhxGHRJjDwp5Sj</div></td></tr><tr><td style="font-weight:bold;vertical-align:top;">http_cookie</td><td style="vertical-align:top;">:</td><td><div>session_id_welcome=127.0.0.1-81d337cb-6f61-48f4-9aff-32f75feb8c7d; session_id_admin=127.0.0.1-7a3df428-1481-441b-8abf-dd1d8b3140c7; session_id_bootup=127.0.0.1-2784d2b5-a3de-4957-8571-5e580bbdd450</div></td></tr><tr><td style="font-weight:bold;vertical-align:top;">http_host</td><td style="vertical-align:top;">:</td><td><div>127.0.0.1:8000</div></td></tr><tr><td style="font-weight:bold;vertical-align:top;">http_origin</td><td style="vertical-align:top;">:</td><td><div>http://127.0.0.1:8000</div></td></tr><tr><td style="font-weight:bold;vertical-align:top;">http_referer</td><td style="vertical-align:top;">:</td><td><div>http://127.0.0.1:8000/BootUp/default/login</div></td></tr><tr><td style="font-weight:bold;vertical-align:top;">http_user_agent</td><td style="vertical-align:top;">:</td><td><div>Mozilla/5.0 (X11; Linux x86_64) AppleWebKit/537.36 (KHTML, like Gecko) Chrome/39.0.2171.65 Safari/537.36</div></td></tr><tr><td style="font-weight:bold;vertical-align:top;">is_jython</td><td style="vertical-align:top;">:</td><td><div>False</div></td></tr><tr><td style="font-weight:bold;vertical-align:top;">is_pypy</td><td style="vertical-align:top;">:</td><td><div>False</div></td></tr><tr><td style="font-weight:bold;vertical-align:top;">is_source</td><td style="vertical-align:top;">:</td><td><div>True</div></td></tr><tr><td style="font-weight:bold;vertical-align:top;">local_hosts</td><td style="vertical-align:top;">:</td><td><div><table><tr><td><div>pc975s</div></td></tr><tr><td><div>::ffff:127.0.0.1</div></td></tr><tr><td><div>::1</div></td></tr><tr><td><div>pc975s.cs.york.ac.uk</div></td></tr><tr><td><div>144.32.179.175</div></td></tr><tr><td><div>127.0.0.1</div></td></tr></table></div></td></tr><tr><td style="font-weight:bold;vertical-align:top;">path_info</td><td style="vertical-align:top;">:</td><td><div>/BootUp/default/login</div></td></tr><tr><td style="font-weight:bold;vertical-align:top;">query_string</td><td style="vertical-align:top;">:</td><td><div></div></td></tr><tr><td style="font-weight:bold;vertical-align:top;">remote_addr</td><td style="vertical-align:top;">:</td><td><div>127.0.0.1</div></td></tr><tr><td style="font-weight:bold;vertical-align:top;">remote_port</td><td style="vertical-align:top;">:</td><td><div>52631</div></td></tr><tr><td style="font-weight:bold;vertical-align:top;">request_method</td><td style="vertical-align:top;">:</td><td><div>POST</div></td></tr><tr><td style="font-weight:bold;vertical-align:top;">request_uri</td><td style="vertical-align:top;">:</td><td><div>/BootUp/default/login</div></td></tr><tr><td style="font-weight:bold;vertical-align:top;">script_name</td><td style="vertical-align:top;">:</td><td><div></div></td></tr><tr><td style="font-weight:bold;vertical-align:top;">server_name</td><td style="vertical-align:top;">:</td><td><div>pc975s</div></td></tr><tr><td style="font-weight:bold;vertical-align:top;">server_port</td><td style="vertical-align:top;">:</td><td><div>8000</div></td></tr><tr><td style="font-weight:bold;vertical-align:top;">server_protocol</td><td style="vertical-align:top;">:</td><td><div>HTTP/1.1</div></td></tr><tr><td style="font-weight:bold;vertical-align:top;">server_software</td><td style="vertical-align:top;">:</td><td><div>Rocket 1.2.6</div></td></tr><tr><td style="font-weight:bold;vertical-align:top;">web2py_path</td><td style="vertical-align:top;">:</td><td><div>/usr/userfs/r/rs1019/iapt/web2py</div></td></tr><tr><td style="font-weight:bold;vertical-align:top;">web2py_version</td><td style="vertical-align:top;">:</td><td><div>2.9.11-stable+timestamp.2014.09.15.23.35.11</div></td></tr><tr><td style="font-weight:bold;vertical-align:top;">wsgi.errors</td><td style="vertical-align:top;">:</td><td><div>&lt;open file &#x27;&lt;stderr&gt;&#x27;, mode &#x27;w&#x27; at 0x7f096a55d1e0&gt;</div></td></tr><tr><td style="font-weight:bold;vertical-align:top;">wsgi.file_wrapper</td><td style="vertical-align:top;">:</td><td><div>&lt;class wsgiref.util.FileWrapper at 0x7f09622b4668&gt;</div></td></tr><tr><td style="font-weight:bold;vertical-align:top;">wsgi.input</td><td style="vertical-align:top;">:</td><td><div>&lt;socket._fileobject object at 0x7f0930df07d0&gt;</div></td></tr><tr><td style="font-weight:bold;vertical-align:top;">wsgi.multiprocess</td><td style="vertical-align:top;">:</td><td><div>False</div></td></tr><tr><td style="font-weight:bold;vertical-align:top;">wsgi.multithread</td><td style="vertical-align:top;">:</td><td><div>True</div></td></tr><tr><td style="font-weight:bold;vertical-align:top;">wsgi.run_once</td><td style="vertical-align:top;">:</td><td><div>False</div></td></tr><tr><td style="font-weight:bold;vertical-align:top;">wsgi.url_scheme</td><td style="vertical-align:top;">:</td><td><div>http</div></td></tr><tr><td style="font-weight:bold;vertical-align:top;">wsgi.version</td><td style="vertical-align:top;">:</td><td><div><table><tr><td><div>1</div></td></tr><tr><td><div>0</div></td></tr></table></div></td></tr><tr><td style="font-weight:bold;vertical-align:top;">wsgi_errors</td><td style="vertical-align:top;">:</td><td><div>&lt;open file &#x27;&lt;stderr&gt;&#x27;, mode &#x27;w&#x27; at 0x7f096a55d1e0&gt;</div></td></tr><tr><td style="font-weight:bold;vertical-align:top;">wsgi_file_wrapper</td><td style="vertical-align:top;">:</td><td><div>&lt;class wsgiref.util.FileWrapper at 0x7f09622b4668&gt;</div></td></tr><tr><td style="font-weight:bold;vertical-align:top;">wsgi_input</td><td style="vertical-align:top;">:</td><td><div>&lt;socket._fileobject object at 0x7f0930df07d0&gt;</div></td></tr><tr><td style="font-weight:bold;vertical-align:top;">wsgi_multiprocess</td><td style="vertical-align:top;">:</td><td><div>False</div></td></tr><tr><td style="font-weight:bold;vertical-align:top;">wsgi_multithread</td><td style="vertical-align:top;">:</td><td><div>True</div></td></tr><tr><td style="font-weight:bold;vertical-align:top;">wsgi_run_once</td><td style="vertical-align:top;">:</td><td><div>False</div></td></tr><tr><td style="font-weight:bold;vertical-align:top;">wsgi_url_scheme</td><td style="vertical-align:top;">:</td><td><div>http</div></td></tr><tr><td style="font-weight:bold;vertical-align:top;">wsgi_version</td><td style="vertical-align:top;">:</td><td><div><table><tr><td><div>1</div></td></tr><tr><td><div>0</div></td></tr></table></div></td></tr></table></div></td></tr><tr><td style="font-weight:bold;vertical-align:top;">extension</td><td style="vertical-align:top;">:</td><td><div>html</div></td></tr><tr><td style="font-weight:bold;vertical-align:top;">folder</td><td style="vertical-align:top;">:</td><td><div>/usr/userfs/r/rs1019/iapt/web2py/applications/BootUp/</div></td></tr><tr><td style="font-weight:bold;vertical-align:top;">function</td><td style="vertical-align:top;">:</td><td><div>login</div></td></tr><tr><td style="font-weight:bold;vertical-align:top;">global_settings</td><td style="vertical-align:top;">:</td><td><div><table><tr><td style="font-weight:bold;vertical-align:top;">app_folders</td><td style="vertical-align:top;">:</td><td><div>set([&#x27;/usr/userfs/r/rs1019/iapt/web2py/applications/admin/&#x27;, &#x27;/usr/userfs/r/rs1019/iapt/web2py/applications/welcome/&#x27;, &#x27;/usr/userfs/r/rs1019/iapt/web2py/applications/copied/&#x27;, &#x27;/usr/userfs/r/rs1019/iapt/web2py/applications/BootUp/&#x27;, &#x27;/usr/userfs/r/rs1019/iapt/web2py/applications/CongoWithBootstrap/&#x27;])</div></td></tr><tr><td style="font-weight:bold;vertical-align:top;">applications_parent</td><td style="vertical-align:top;">:</td><td><div>/usr/userfs/r/rs1019/iapt/web2py</div></td></tr><tr><td style="font-weight:bold;vertical-align:top;">cmd_args</td><td style="vertical-align:top;">:</td><td><div><table></table></div></td></tr><tr><td style="font-weight:bold;vertical-align:top;">cmd_options</td><td style="vertical-align:top;">:</td><td><div>&lt;Values at 0x7f096221a440: {&#x27;verbose&#x27;: False, &#x27;ip&#x27;: &#x27;127.0.0.1&#x27;, &#x27;debuglevel&#x27;: 30, &#x27;with_scheduler&#x27;: False, &#x27;ips&#x27;: [&#x27;144.32.179.175&#x27;], &#x27;shutdown_timeout&#x27;: 5, &#x27;taskbar&#x27;: False, &#x27;with_coverage&#x27;: False, &#x27;scheduler_groups&#x27;: None, &#x27;port&#x27;: 8000, &#x27;maxthreads&#x27;: None, &#x27;softcron&#x27;: False, &#x27;server_name&#x27;: &#x27;pc975s&#x27;, &#x27;bpython&#x27;: False, &#x27;nogui&#x27;: False, &#x27;pid_filename&#x27;: &#x27;httpserver.pid&#x27;, &#x27;extcron&#x27;: False, &#x27;runcron&#x27;: False, &#x27;run_system_tests&#x27;: False, &#x27;test&#x27;: None, &#x27;folder&#x27;: &#x27;/usr/userfs/r/rs1019/iapt/web2py&#x27;, &#x27;config&#x27;: &#x27;&#x27;, &#x27;minthreads&#x27;: None, &#x27;shell&#x27;: None, &#x27;run&#x27;: &#x27;&#x27;, &#x27;log_filename&#x27;: &#x27;httpserver.log&#x27;, &#x27;profiler_dir&#x27;: None, &#x27;args&#x27;: [&#x27;&#x27;], &#x27;socket_timeout&#x27;: 5, &#x27;ssl_ca_certificate&#x27;: None, &#x27;scheduler&#x27;: None, &#x27;interfaces&#x27;: None, &#x27;ssl_private_key&#x27;: &#x27;&#x27;, &#x27;gae&#x27;: None, &#x27;password&#x27;: &#x27;&lt;ask&gt;&#x27;, &#x27;request_queue_size&#x27;: 5, &#x27;ssl_certificate&#x27;: &#x27;&#x27;, &#x27;cronjob&#x27;: False, &#x27;numthreads&#x27;: None, &#x27;quiet&#x27;: False, &#x27;import_models&#x27;: False, &#x27;timeout&#x27;: 10, &#x27;plain&#x27;: False, &#x27;nobanner&#x27;: False}&gt;</div></td></tr><tr><td style="font-weight:bold;vertical-align:top;">db_sessions</td><td style="vertical-align:top;">:</td><td><div>set([])</div></td></tr><tr><td style="font-weight:bold;vertical-align:top;">debugging</td><td style="vertical-align:top;">:</td><td><div>False</div></td></tr><tr><td style="font-weight:bold;vertical-align:top;">gluon_parent</td><td style="vertical-align:top;">:</td><td><div>/usr/userfs/r/rs1019/iapt/web2py</div></td></tr><tr><td style="font-weight:bold;vertical-align:top;">is_jython</td><td style="vertical-align:top;">:</td><td><div>False</div></td></tr><tr><td style="font-weight:bold;vertical-align:top;">is_pypy</td><td style="vertical-align:top;">:</td><td><div>False</div></td></tr><tr><td style="font-weight:bold;vertical-align:top;">is_source</td><td style="vertical-align:top;">:</td><td><div>True</div></td></tr><tr><td style="font-weight:bold;vertical-align:top;">local_hosts</td><td style="vertical-align:top;">:</td><td><div><table><tr><td><div>pc975s</div></td></tr><tr><td><div>::ffff:127.0.0.1</div></td></tr><tr><td><div>::1</div></td></tr><tr><td><div>pc975s.cs.york.ac.uk</div></td></tr><tr><td><div>144.32.179.175</div></td></tr><tr><td><div>127.0.0.1</div></td></tr></table></div></td></tr><tr><td style="font-weight:bold;vertical-align:top;">web2py_version</td><td style="vertical-align:top;">:</td><td><div>2.9.11-stable+timestamp.2014.09.15.23.35.11</div></td></tr></table></div></td></tr><tr><td style="font-weight:bold;vertical-align:top;">is_https</td><td style="vertical-align:top;">:</td><td><div>False</div></td></tr><tr><td style="font-weight:bold;vertical-align:top;">is_local</td><td style="vertical-align:top;">:</td><td><div>True</div></td></tr><tr><td style="font-weight:bold;vertical-align:top;">is_restful</td><td style="vertical-align:top;">:</td><td><div>False</div></td></tr><tr><td style="font-weight:bold;vertical-align:top;">is_sheduler</td><td style="vertical-align:top;">:</td><td><div>None</div></td></tr><tr><td style="font-weight:bold;vertical-align:top;">is_shell</td><td style="vertical-align:top;">:</td><td><div>None</div></td></tr><tr><td style="font-weight:bold;vertical-align:top;">now</td><td style="vertical-align:top;">:</td><td><div>datetime.datetime(2014, 11, 24, 20, 16, 32, 616160)</div></td></tr><tr><td style="font-weight:bold;vertical-align:top;">raw_args</td><td style="vertical-align:top;">:</td><td><div></div></td></tr><tr><td style="font-weight:bold;vertical-align:top;">raw_extension</td><td style="vertical-align:top;">:</td><td><div>None</div></td></tr><tr><td style="font-weight:bold;vertical-align:top;">url</td><td style="vertical-align:top;">:</td><td><div>/BootUp/default/login</div></td></tr><tr><td style="font-weight:bold;vertical-align:top;">utcnow</td><td style="vertical-align:top;">:</td><td><div>datetime.datetime(2014, 11, 24, 20, 16, 32, 616177)</div></td></tr><tr><td style="font-weight:bold;vertical-align:top;">uuid</td><td style="vertical-align:top;">:</td><td><div>BootUp/127.0.0.1.2014-11-24.20-16-32.fb70443a-68e5-4592-a8d7-4ab4284d3af7</div></td></tr><tr><td style="font-weight:bold;vertical-align:top;">wsgi</td><td style="vertical-align:top;">:</td><td><div>&lt;gluon.main.LazyWSGI object at 0x7f093065b610&gt;</div></td></tr></table></div>'
tRp62
sS'frames'
p63
(lp64
(dp65
S'file'
p66
S'/usr/userfs/r/rs1019/iapt/web2py/gluon/restricted.py'
p67
sS'dump'
p68
(dp69
S'environment'
p70
S"{'A': <class 'gluon.html.A'>, 'ANY_OF': <class 'gluon.validators.ANY_OF'>, 'ASSIGNJS': <function ASSIGNJS>, 'Auth': <class 'gluon.tools.Auth'>, 'B': <class 'gluon.html.B'>, 'BEAUTIFY': <class 'gluon.html.BEAUTIFY'>, 'BODY': <class 'gluon.html.BODY'>, 'BR': <class 'gluon.html.BR'>, 'BUTTON': <class 'gluon.html.BUTTON'>, 'CAT': <class 'gluon.html.CAT'>, ...}"
p71
sS'ccode'
p72
S'<code object <module> at 0x7f0930839130, file "/...ications/BootUp/controllers/default.py", line 13>'
p73
ssS'lnum'
p74
I224
sS'lines'
p75
(dp76
I224
S'        exec ccode in environment'
p77
sI225
S'    except HTTP:'
p78
sI226
S'        raise'
p79
sI227
S'    except RestrictedError:'
p80
sI228
S'        # do not encapsulate (obfuscate) the original RestrictedError'
p81
sI219
S'    try:'
p82
sI220
S'        if isinstance(code, types.CodeType):'
p83
sI221
S'            ccode = code'
p84
sI222
S'        else:'
p85
sI223
S'            ccode = compile2(code, layer)'
p86
ssS'call'
p87
S"(code='# -*- coding: utf-8 -*-\\n# this file is released ...e,rules)\\n\\nresponse._vars=response._caller(login)\\n', environment={'A': <class 'gluon.html.A'>, 'ANY_OF': <class 'gluon.validators.ANY_OF'>, 'ASSIGNJS': <function ASSIGNJS>, 'Auth': <class 'gluon.tools.Auth'>, 'B': <class 'gluon.html.B'>, 'BEAUTIFY': <class 'gluon.html.BEAUTIFY'>, 'BODY': <class 'gluon.html.BODY'>, 'BR': <class 'gluon.html.BR'>, 'BUTTON': <class 'gluon.html.BUTTON'>, 'CAT': <class 'gluon.html.CAT'>, ...}, layer='/usr/userfs/r/rs1019/iapt/web2py/applications/BootUp/controllers/default.py')"
p88
sS'func'
p89
S'restricted'
p90
sa(dp91
g66
S'/usr/userfs/r/rs1019/iapt/web2py/applications/BootUp/controllers/default.py'
p92
sg68
(dp93
sg74
I255
sg75
(dp94
I244
S'def api():'
p95
sI245
S'    """'
p96
sI246
S'    this is example of API with access control'
p97
sI247
S'    WEB2PY provides Hypermedia API (Collection+JSON) Experimental'
p98
sI248
S'    """'
p99
sI249
S'    from gluon.contrib.hypermedia import Collection'
p100
sI250
S'    rules = {'
p101
sI251
S"        '<tablename>': {'GET':{},'POST':{},'PUT':{},'DELETE':{}},"
p102
sI252
S'        }'
p103
sI253
S'    return Collection(db).process(request,response,rules)'
p104
ssg87
S'()'
p105
sg89
S'<module>'
p106
sa(dp107
g66
S'/usr/userfs/r/rs1019/iapt/web2py/gluon/globals.py'
p108
sg68
(dp109
S'self'
p110
S'undefined'
p111
sS'f'
S'<function login>'
p112
ssg74
I392
sg75
(dp113
I387
S"        self.flash = ''            # used by the default view layout"
p114
sI388
S'        self.meta = Storage()      # used by web2py_ajax.html'
p115
sI389
S'        self.menu = []             # used by the default view layout'
p116
sI390
S'        self.files = []            # used by web2py_ajax.html'
p117
sI391
S'        self._vars = None'
p118
sI392
S'        self._caller = lambda f: f()'
p119
sI393
S'        self._view_environment = None'
p120
sI394
S'        self._custom_commit = None'
p121
sI395
S'        self._custom_rollback = None'
p122
sI396
S"        self.generic_patterns = ['*']"
p123
ssg87
S'(f=<function login>)'
p124
sg89
S'<lambda>'
p125
sa(dp126
g66
S'/usr/userfs/r/rs1019/iapt/web2py/applications/BootUp/controllers/default.py'
p127
sg68
(dp128
S'auth.login_bare'
p129
S'<bound method Auth.login_bare of <gluon.tools.Auth object>>'
p130
sS'global request'
p131
S"<Storage {'_vars': <Storage {'username': 'Rory',...erfs/r/rs1019/iapt/web2py/applications/BootUp/'}>"
p132
sS'global user'
p133
S'<function user>'
p134
sS'global auth'
p135
S'<gluon.tools.Auth object>'
p136
sS'request.vars.password'
p137
S"'password'"
p138
sS'request.vars.username'
p139
S"'Rory'"
p140
sS'request.vars'
p141
S"<Storage {'username': 'Rory', '_formkey': '05e5e... 'password': 'password', '_formname': 'default'}>"
p142
ssg74
I47
sg75
(dp143
I42
S'                 INPUT(_type=\'password\',_name=\'password\', _class = \'input-block-level\', _placeholder=\'password\', requires=IS_NOT_EMPTY(error_message=T("Please enter a password"))), INPUT(_type=\'submit\', _class=\'btn btn-primary\', _value=\'Login\'),'
p144
sI43
S"                 A('Register',_href=URL('register'), _role='button', _class='btn btn-info'))"
p145
sI44
S''
sI45
S'    if form.process(onvalidation=login_validation).accepted:'
p146
sI46
S"        response.flash = 'form accepted'"
p147
sI47
S'        user = auth.login_bare(request.vars.username, request.vars.password)'
p148
sI48
S'        if(user is False):'
p149
sI49
S'            response.flash = DIV("Invalid Username/Password Combination", _class=\'alert alert-error\')'
p150
sI50
S'        else:'
p151
sI51
S"            redirect(URL('index'))"
p152
ssg87
S'()'
p153
sg89
S'login'
p154
sa(dp155
g66
S'/usr/userfs/r/rs1019/iapt/web2py/gluon/tools.py'
p156
sg68
(dp157
S'username'
p158
S"'Rory'"
p159
ssg74
I2155
sg75
(dp160
I2150
S'        """'
p161
sI2151
S'        Logins user as specified by username (or email) and password'
p162
sI2152
S'        """'
p163
sI2153
S'        settings = self._get_login_settings()'
p164
sI2154
S'        user = settings.table_user(**{settings.userfield: \\'
p165
sI2155
S'                       username})'
p166
sI2156
S'        if user and user.get(settings.passfield, False):'
p167
sI2157
S'            password = settings.table_user['
p168
sI2158
S'                settings.passfield].validate(password)[0]'
p169
sI2159
S'            if ((user.registration_key is None or'
p170
ssg87
S"(self=<gluon.tools.Auth object>, username='Rory', password='password')"
p171
sg89
S'login_bare'
p172
sa(dp173
g66
S'/usr/userfs/r/rs1019/iapt/web2py/gluon/dal.py'
p174
sg68
(dp175
S'orderby'
p176
S'None'
p177
sS'orderby_on_limitby'
p178
g111
sS'builtinFalse'
p179
S'False'
p180
sS'self'
p181
S'<Table auth_user (id,first_name,last_name,email,...tration_id,birthdate,address_id,bank_details_id)>'
p182
sS'limitby'
p183
g111
sS').select'
p184
g111
sS'for_update'
p185
g180
sS'query'
p186
S"<Query (auth_user.username = 'Rory')>"
p187
sS'self._db'
p188
S'<DAL uri="sqlite://bootupdatabase.db">'
p189
sS').first'
p190
g111
ssg74
I9136
sg75
(dp191
I9131
S'                for k, v in kwargs.iteritems():'
p192
sI9132
S'                    if record[k]!=v: return None'
p193
sI9133
S'            return record'
p194
sI9134
S'        elif kwargs:'
p195
sI9135
S'            query = reduce(lambda a, b:a&b, [self[k]==v for k, v in kwargs.iteritems()])'
p196
sI9136
S'            return self._db(query).select(limitby=(0, 1), for_update=for_update, orderby=orderby, orderby_on_limitby=False).first()'
p197
sI9137
S'        else:'
p198
sI9138
S'            return None'
p199
sI9139
S''
sI9140
S'    def __setitem__(self, key, value):'
p200
ssg87
S"(self=<Table auth_user (id,first_name,last_name,email,...tration_id,birthdate,address_id,bank_details_id)>, key=<function <lambda>>, **kwargs={'username': 'Rory'})"
p201
sg89
S'__call__'
p202
sa(dp203
g66
S'/usr/userfs/r/rs1019/iapt/web2py/gluon/dal.py'
p204
sg68
(dp205
S'self.query'
p206
S"<Query (auth_user.username = 'Rory')>"
p207
sS'adapter.select'
p208
S'<bound method SQLiteAdapter.select of <gluon.dal.SQLiteAdapter object>>'
p209
sS'fields'
p210
S'[<gluon.dal.Field object>, <gluon.dal.Field object>, <gluon.dal.Field object>, <gluon.dal.Field object>, <gluon.dal.Field object>, <gluon.dal.Field object>, <gluon.dal.Field object>, <gluon.dal.Field object>, <gluon.dal.Field object>, <gluon.dal.Field object>, <gluon.dal.Field object>, <gluon.dal.Field object>]'
p211
sS'adapter'
p212
S'<gluon.dal.SQLiteAdapter object>'
p213
sS'attributes'
p214
S"{'for_update': False, 'limitby': (0, 1), 'orderby': None, 'orderby_on_limitby': False}"
p215
sS'self'
p216
S"<Set (auth_user.username = 'Rory')>"
p217
ssg74
I10749
sg75
(dp218
I10752
S'        return Expression(self.db, self._select(*fields, **attributes))'
p219
sI10753
S''
sI10744
S"                                    attributes.get('join', None),"
p220
sI10745
S"                                    attributes.get('left', None),"
p221
sI10746
S"                                    attributes.get('orderby', None),"
p222
sI10747
S"                                    attributes.get('groupby', None))"
p223
sI10748
S'        fields = adapter.expand_all(fields, tablenames)'
p224
sI10749
S'        return adapter.select(self.query, fields, attributes)'
p225
sI10750
S''
sI10751
S'    def nested_select(self, *fields, **attributes):'
p226
ssg87
S"(self=<Set (auth_user.username = 'Rory')>, *fields=[<gluon.dal.Field object>, <gluon.dal.Field object>, <gluon.dal.Field object>, <gluon.dal.Field object>, <gluon.dal.Field object>, <gluon.dal.Field object>, <gluon.dal.Field object>, <gluon.dal.Field object>, <gluon.dal.Field object>, <gluon.dal.Field object>, <gluon.dal.Field object>, <gluon.dal.Field object>], **attributes={'for_update': False, 'limitby': (0, 1), 'orderby': None, 'orderby_on_limitby': False})"
p227
sg89
S'select'
p228
sa(dp229
g66
S'/usr/userfs/r/rs1019/iapt/web2py/gluon/dal.py'
p230
sg68
(dp231
S'fields'
p232
S'[<gluon.dal.Field object>, <gluon.dal.Field object>, <gluon.dal.Field object>, <gluon.dal.Field object>, <gluon.dal.Field object>, <gluon.dal.Field object>, <gluon.dal.Field object>, <gluon.dal.Field object>, <gluon.dal.Field object>, <gluon.dal.Field object>, <gluon.dal.Field object>, <gluon.dal.Field object>]'
p233
sS'self'
p234
S'<gluon.dal.SQLiteAdapter object>'
p235
sS').select'
p236
S'<bound method SQLiteAdapter.select of <gluon.dal.SQLiteAdapter object>>'
p237
sS'attributes'
p238
S"{'for_update': False, 'limitby': (0, 1), 'orderby': None, 'orderby_on_limitby': False}"
p239
sS'global SQLiteAdapter'
p240
S"<class 'gluon.dal.SQLiteAdapter'>"
p241
sS'query'
p242
S"<Query (auth_user.username = 'Rory')>"
p243
sS'builtinsuper'
p244
S"<type 'super'>"
p245
ssg74
I2472
sg75
(dp246
I2467
S'        Note that the entire database, rather than one record, is locked'
p247
sI2468
S'        (it will be locked eventually anyway by the following UPDATE).'
p248
sI2469
S'        """'
p249
sI2470
S"        if attributes.get('for_update', False) and not 'cache' in attributes:"
p250
sI2471
S"            self.execute('BEGIN IMMEDIATE TRANSACTION;')"
p251
sI2472
S'        return super(SQLiteAdapter, self).select(query, fields, attributes)'
p252
sI2473
S''
sI2474
S''
sI2475
S'class SpatiaLiteAdapter(SQLiteAdapter):'
p253
sI2476
S"    drivers = ('sqlite3', 'sqlite2')"
p254
ssg87
S"(self=<gluon.dal.SQLiteAdapter object>, query=<Query (auth_user.username = 'Rory')>, fields=[<gluon.dal.Field object>, <gluon.dal.Field object>, <gluon.dal.Field object>, <gluon.dal.Field object>, <gluon.dal.Field object>, <gluon.dal.Field object>, <gluon.dal.Field object>, <gluon.dal.Field object>, <gluon.dal.Field object>, <gluon.dal.Field object>, <gluon.dal.Field object>, <gluon.dal.Field object>], attributes={'for_update': False, 'limitby': (0, 1), 'orderby': None, 'orderby_on_limitby': False})"
p255
sg89
g228
sa(dp256
g66
S'/usr/userfs/r/rs1019/iapt/web2py/gluon/dal.py'
p257
sg68
(dp258
S'fields'
p259
S'[<gluon.dal.Field object>, <gluon.dal.Field object>, <gluon.dal.Field object>, <gluon.dal.Field object>, <gluon.dal.Field object>, <gluon.dal.Field object>, <gluon.dal.Field object>, <gluon.dal.Field object>, <gluon.dal.Field object>, <gluon.dal.Field object>, <gluon.dal.Field object>, <gluon.dal.Field object>]'
p260
sS'self'
p261
S'<gluon.dal.SQLiteAdapter object>'
p262
sS'attributes'
p263
S"{'for_update': False, 'limitby': (0, 1), 'orderby': None, 'orderby_on_limitby': False}"
p264
sS'self._select_aux'
p265
S'<bound method SQLiteAdapter._select_aux of <gluon.dal.SQLiteAdapter object>>'
p266
sS'sql'
p267
S'"SELECT  auth_user.id, auth_user.first_name, auth...E (auth_user.username = \'Rory\') LIMIT 1 OFFSET 0;"'
p268
ssg74
I1881
sg75
(dp269
I1876
S'            return cache_model('
p270
sI1877
S'                key,'
p271
sI1878
S'                lambda self=self, args=args: self._select_aux(*args),'
p272
sI1879
S'                time_expire)'
p273
sI1880
S'        else:'
p274
sI1881
S'            return self._select_aux(sql, fields, attributes)'
p275
sI1882
S''
sI1883
S'    def _count(self, query, distinct=None):'
p276
sI1884
S'        tablenames = self.tables(query)'
p277
sI1885
S'        if query:'
p278
ssg87
S"(self=<gluon.dal.SQLiteAdapter object>, query=<Query (auth_user.username = 'Rory')>, fields=[<gluon.dal.Field object>, <gluon.dal.Field object>, <gluon.dal.Field object>, <gluon.dal.Field object>, <gluon.dal.Field object>, <gluon.dal.Field object>, <gluon.dal.Field object>, <gluon.dal.Field object>, <gluon.dal.Field object>, <gluon.dal.Field object>, <gluon.dal.Field object>, <gluon.dal.Field object>], attributes={'for_update': False, 'limitby': (0, 1), 'orderby': None, 'orderby_on_limitby': False})"
p279
sg89
g228
sa(dp280
g66
S'/usr/userfs/r/rs1019/iapt/web2py/gluon/dal.py'
p281
sg68
(dp282
S'self'
p283
S'<gluon.dal.SQLiteAdapter object>'
p284
sS'self.execute'
p285
S'<bound method SQLiteAdapter.execute of <gluon.dal.SQLiteAdapter object>>'
p286
sS'sql'
p287
S'"SELECT  auth_user.id, auth_user.first_name, auth...E (auth_user.username = \'Rory\') LIMIT 1 OFFSET 0;"'
p288
ssg74
I1846
sg75
(dp289
I1841
S''
sI1842
S'    def _select_aux(self, sql, fields, attributes):'
p290
sI1843
S'        args_get = attributes.get'
p291
sI1844
S"        cache = args_get('cache',None)"
p292
sI1845
S'        if not cache:'
p293
sI1846
S'            self.execute(sql)'
p294
sI1847
S'            rows = self._fetchall()'
p295
sI1848
S'        else:'
p296
sI1849
S'            (cache_model, time_expire) = cache'
p297
sI1850
S"            key = self.uri + '/' + sql + '/rows'"
p298
ssg87
S'(self=<gluon.dal.SQLiteAdapter object>, sql="SELECT  auth_user.id, auth_user.first_name, auth...E (auth_user.username = \'Rory\') LIMIT 1 OFFSET 0;", fields=[<gluon.dal.Field object>, <gluon.dal.Field object>, <gluon.dal.Field object>, <gluon.dal.Field object>, <gluon.dal.Field object>, <gluon.dal.Field object>, <gluon.dal.Field object>, <gluon.dal.Field object>, <gluon.dal.Field object>, <gluon.dal.Field object>, <gluon.dal.Field object>, <gluon.dal.Field object>], attributes={\'for_update\': False, \'limitby\': (0, 1), \'orderby\': None, \'orderby_on_limitby\': False})'
p299
sg89
S'_select_aux'
p300
sa(dp301
g66
S'/usr/userfs/r/rs1019/iapt/web2py/gluon/dal.py'
p302
sg68
(dp303
S'a'
S'("SELECT  auth_user.id, auth_user.first_name, auth...E (auth_user.username = \'Rory\') LIMIT 1 OFFSET 0;",)'
p304
sS'self'
p305
S'<gluon.dal.SQLiteAdapter object>'
p306
sS'b'
g21
sS'self.log_execute'
p307
S'<bound method SQLiteAdapter.log_execute of <gluon.dal.SQLiteAdapter object>>'
p308
ssg74
I1967
sg75
(dp309
I1962
S'        self.db._timings.append((command, time.time()-t0))'
p310
sI1963
S'        del self.db._timings[:-TIMINGSSIZE]'
p311
sI1964
S'        return ret'
p312
sI1965
S''
sI1966
S'    def execute(self, *a, **b):'
p313
sI1967
S'        return self.log_execute(*a, **b)'
p314
sI1968
S''
sI1969
S'    def represent(self, obj, fieldtype):'
p315
sI1970
S'        field_is_type = fieldtype.startswith'
p316
sI1971
S'        if isinstance(obj, CALLABLETYPES):'
p317
ssg87
S'(self=<gluon.dal.SQLiteAdapter object>, *a=("SELECT  auth_user.id, auth_user.first_name, auth...E (auth_user.username = \'Rory\') LIMIT 1 OFFSET 0;",), **b={})'
p318
sg89
S'execute'
p319
sa(dp320
g66
S'/usr/userfs/r/rs1019/iapt/web2py/gluon/dal.py'
p321
sg68
(dp322
S'a'
S'("SELECT  auth_user.id, auth_user.first_name, auth...E (auth_user.username = \'Rory\') LIMIT 1 OFFSET 0;",)'
p323
sS'b'
g21
sS'self'
p324
S'<gluon.dal.SQLiteAdapter object>'
p325
sS'ret'
p326
g111
sS'self.cursor'
p327
S'<pysqlite2.dbapi2.Cursor object>'
p328
sS'command'
p329
S'"SELECT  auth_user.id, auth_user.first_name, auth...E (auth_user.username = \'Rory\') LIMIT 1 OFFSET 0;"'
p330
sS'self.cursor.execute'
p331
S'<built-in method execute of pysqlite2.dbapi2.Cursor object>'
p332
ssg74
I1961
sg75
(dp333
I1956
S'            command = self.filter_sql_command(command)'
p334
sI1957
S'        if self.db._debug:'
p335
sI1958
S"            LOGGER.debug('SQL: %s' % command)"
p336
sI1959
S'        self.db._lastsql = command'
p337
sI1960
S'        t0 = time.time()'
p338
sI1961
S'        ret = self.cursor.execute(command, *a[1:], **b)'
p339
sI1962
S'        self.db._timings.append((command, time.time()-t0))'
p340
sI1963
S'        del self.db._timings[:-TIMINGSSIZE]'
p341
sI1964
S'        return ret'
p342
sI1965
S''
ssg87
S'(self=<gluon.dal.SQLiteAdapter object>, *a=("SELECT  auth_user.id, auth_user.first_name, auth...E (auth_user.username = \'Rory\') LIMIT 1 OFFSET 0;",), **b={})'
p343
sg89
S'log_execute'
p344
sasS'pyver'
p345
S'Python 2.7.6: /usr/bin/python (prefix: /usr)'
p346
sS'session'
p347
g61
(S's\x1a\x00\x00\x00<div><table></table></div>'
tRp348
sS'etype'
p349
S"<class 'pysqlite2.dbapi2.OperationalError'>"
p350
sS'date'
p351
S'Mon Nov 24 20:16:32 2014'
p352
sS'response'
p353
g61
(S's\xa42\x00\x00<div><table><tr><td style="font-weight:bold;vertical-align:top;">body</td><td style="vertical-align:top;">:</td><td><div>&lt;cStringIO.StringO object at 0x7f0930969880&gt;</div></td></tr><tr><td style="font-weight:bold;vertical-align:top;">cookies</td><td style="vertical-align:top;">:</td><td><div><table><tr><td style="font-weight:bold;vertical-align:top;">session_id_bootup</td><td style="vertical-align:top;">:</td><td><div>127.0.0.1-2784d2b5-a3de-4957-8571-5e580bbdd450<table><tr><td style="font-weight:bold;vertical-align:top;">comment</td><td style="vertical-align:top;">:</td><td><div></div></td></tr><tr><td style="font-weight:bold;vertical-align:top;">domain</td><td style="vertical-align:top;">:</td><td><div></div></td></tr><tr><td style="font-weight:bold;vertical-align:top;">expires</td><td style="vertical-align:top;">:</td><td><div></div></td></tr><tr><td style="font-weight:bold;vertical-align:top;">httponly</td><td style="vertical-align:top;">:</td><td><div></div></td></tr><tr><td style="font-weight:bold;vertical-align:top;">max-age</td><td style="vertical-align:top;">:</td><td><div></div></td></tr><tr><td style="font-weight:bold;vertical-align:top;">path</td><td style="vertical-align:top;">:</td><td><div>/</div></td></tr><tr><td style="font-weight:bold;vertical-align:top;">secure</td><td style="vertical-align:top;">:</td><td><div></div></td></tr><tr><td style="font-weight:bold;vertical-align:top;">version</td><td style="vertical-align:top;">:</td><td><div></div></td></tr></table></div></td></tr></table></div></td></tr><tr><td style="font-weight:bold;vertical-align:top;">delimiters</td><td style="vertical-align:top;">:</td><td><div><table><tr><td><div>{{</div></td></tr><tr><td><div>}}</div></td></tr></table></div></td></tr><tr><td style="font-weight:bold;vertical-align:top;">files</td><td style="vertical-align:top;">:</td><td><div><table></table></div></td></tr><tr><td style="font-weight:bold;vertical-align:top;">flash</td><td style="vertical-align:top;">:</td><td><div>form accepted</div></td></tr><tr><td style="font-weight:bold;vertical-align:top;">form_label_separator</td><td style="vertical-align:top;">:</td><td><div>: </div></td></tr><tr><td style="font-weight:bold;vertical-align:top;">formstyle</td><td style="vertical-align:top;">:</td><td><div>table3cols</div></td></tr><tr><td style="font-weight:bold;vertical-align:top;">generic_patterns</td><td style="vertical-align:top;">:</td><td><div><table><tr><td><div>*</div></td></tr></table></div></td></tr><tr><td style="font-weight:bold;vertical-align:top;">google_analytics_id</td><td style="vertical-align:top;">:</td><td><div>None</div></td></tr><tr><td style="font-weight:bold;vertical-align:top;">headers</td><td style="vertical-align:top;">:</td><td><div><table><tr><td style="font-weight:bold;vertical-align:top;">X-Powered-By</td><td style="vertical-align:top;">:</td><td><div>web2py</div></td></tr></table></div></td></tr><tr><td style="font-weight:bold;vertical-align:top;">logo</td><td style="vertical-align:top;">:</td><td><div><a class="brand" href="http://www.web2py.com/"><b>web<span>2</span>py</b>&trade;&nbsp;</a></div></td></tr><tr><td style="font-weight:bold;vertical-align:top;">menu</td><td style="vertical-align:top;">:</td><td><div><table><tr><td><div><table><tr><td><div>Home</div></td></tr><tr><td><div>False</div></td></tr><tr><td><div>/BootUp/default/index</div></td></tr><tr><td><div><table></table></div></td></tr></table></div></td></tr><tr><td><div><table><tr><td><div><span class="highlighted">web2py</span></div></td></tr><tr><td><div>False</div></td></tr><tr><td><div>http://web2py.com</div></td></tr><tr><td><div><table><tr><td><div><table><tr><td><div>My Sites</div></td></tr><tr><td><div>False</div></td></tr><tr><td><div>/admin/default/site</div></td></tr></table></div></td></tr><tr><td><div><table><tr><td><div>This App</div></td></tr><tr><td><div>False</div></td></tr><tr><td><div>/admin/default/design/BootUp</div></td></tr><tr><td><div>[(&lt;lazyT &#x27;Controller&#x27;&gt;, False, &#x27;/admin/default/edit/BootUp/controllers/default.py&#x27;), (&lt;lazyT &#x27;View&#x27;&gt;, False, &#x27;/admin/default/edit/BootUp/views/default/login.html&#x27;), (&lt;lazyT &#x27;Layout&#x27;&gt;, False, &#x27;/admin/default/edit/BootUp/views/layout.html&#x27;), (&lt;lazyT &#x27;Stylesheet&#x27;&gt;, False, &#x27;/admin/default/edit/BootUp/static/css/web2py.css&#x27;), (&lt;lazyT &#x27;DB Model&#x27;&gt;, False, &#x27;/admin/default/edit/BootUp/models/db.py&#x27;), (&lt;lazyT &#x27;Menu Model&#x27;&gt;, False, &#x27;/admin/default/edit/BootUp/models/menu.py&#x27;), (&lt;lazyT &#x27;Database&#x27;&gt;, False, &#x27;/BootUp/appadmin/index&#x27;), (&lt;lazyT &#x27;Errors&#x27;&gt;, False, &#x27;/admin/default/errors/BootUp&#x27;), (&lt;lazyT &#x27;About&#x27;&gt;, False, &#x27;/admin/default/about/BootUp&#x27;)]</div></td></tr></table></div></td></tr><tr><td><div><table><tr><td><div>web2py.com</div></td></tr><tr><td><div>False</div></td></tr><tr><td><div>http://www.web2py.com</div></td></tr><tr><td><div>[(&lt;lazyT &#x27;Download&#x27;&gt;, False, &#x27;http://www.web2py.com/examples/default/download&#x27;), (&lt;lazyT &#x27;Support&#x27;&gt;, False, &#x27;http://www.web2py.com/examples/default/support&#x27;), (&lt;lazyT &#x27;Demo&#x27;&gt;, False, &#x27;http://web2py.com/demo_admin&#x27;), (&lt;lazyT &#x27;Quick Examples&#x27;&gt;, False, &#x27;http://web2py.com/examples/default/examples&#x27;), (&lt;lazyT &#x27;FAQ&#x27;&gt;, False, &#x27;http://web2py.com/AlterEgo&#x27;), (&lt;lazyT &#x27;Videos&#x27;&gt;, False, &#x27;http://www.web2py.com/examples/default/videos/&#x27;), (&lt;lazyT &#x27;Free Applications&#x27;&gt;, False, &#x27;http://web2py.com/appliances&#x27;), (&lt;lazyT &#x27;Plugins&#x27;&gt;, False, &#x27;http://web2py.com/plugins&#x27;), (&lt;lazyT &#x27;Layouts&#x27;&gt;, False, &#x27;http://web2py.com/layouts&#x27;), (&lt;lazyT &#x27;Recipes&#x27;&gt;, False, &#x27;http://web2pyslices.com/&#x27;), (&lt;lazyT &#x27;Semantic&#x27;&gt;, False, &#x27;http://web2py.com/semantic&#x27;)]</div></td></tr></table></div></td></tr><tr><td><div><table><tr><td><div>Documentation</div></td></tr><tr><td><div>False</div></td></tr><tr><td><div>http://www.web2py.com/book</div></td></tr><tr><td><div>[(&lt;lazyT &#x27;Preface&#x27;&gt;, False, &#x27;http://www.web2py.com/book/default/chapter/00&#x27;), (&lt;lazyT &#x27;Introduction&#x27;&gt;, False, &#x27;http://www.web2py.com/book/default/chapter/01&#x27;), (&lt;lazyT &#x27;Python&#x27;&gt;, False, &#x27;http://www.web2py.com/book/default/chapter/02&#x27;), (&lt;lazyT &#x27;Overview&#x27;&gt;, False, &#x27;http://www.web2py.com/book/default/chapter/03&#x27;), (&lt;lazyT &#x27;The Core&#x27;&gt;, False, &#x27;http://www.web2py.com/book/default/chapter/04&#x27;), (&lt;lazyT &#x27;The Views&#x27;&gt;, False, &#x27;http://www.web2py.com/book/default/chapter/05&#x27;), (&lt;lazyT &#x27;Database&#x27;&gt;, False, &#x27;http://www.web2py.com/book/default/chapter/06&#x27;), (&lt;lazyT &#x27;Forms and Validators&#x27;&gt;, False, &#x27;http://www.web2py.com/book/default/chapter/07&#x27;), (&lt;lazyT &#x27;Email and SMS&#x27;&gt;, False, &#x27;http://www.web2py.com/book/default/chapter/08&#x27;), (&lt;lazyT &#x27;Access Control&#x27;&gt;, False, &#x27;http://www.web2py.com/book/default/chapter/09&#x27;), (&lt;lazyT &#x27;Services&#x27;&gt;, False, &#x27;http://www.web2py.com/book/default/chapter/10&#x27;), (&lt;lazyT &#x27;Ajax Recipes&#x27;&gt;, False, &#x27;http://www.web2py.com/book/default/chapter/11&#x27;), (&lt;lazyT &#x27;Components and Plugins&#x27;&gt;, False, &#x27;http://www.web2py.com/book/default/chapter/12&#x27;), (&lt;lazyT &#x27;Deployment Recipes&#x27;&gt;, False, &#x27;http://www.web2py.com/book/default/chapter/13&#x27;), (&lt;lazyT &#x27;Other Recipes&#x27;&gt;, False, &#x27;http://www.web2py.com/book/default/chapter/14&#x27;), (&lt;lazyT &#x27;Buy this book&#x27;&gt;, False, &#x27;http://stores.lulu.com/web2py&#x27;)]</div></td></tr></table></div></td></tr><tr><td><div><table><tr><td><div>Community</div></td></tr><tr><td><div>False</div></td></tr><tr><td><div>None</div></td></tr><tr><td><div>[(&lt;lazyT &#x27;Groups&#x27;&gt;, False, &#x27;http://www.web2py.com/examples/default/usergroups&#x27;), (&lt;lazyT &#x27;Twitter&#x27;&gt;, False, &#x27;http://twitter.com/web2py&#x27;), (&lt;lazyT &#x27;Live Chat&#x27;&gt;, False, &#x27;http://webchat.freenode.net/?channels=web2py&#x27;)]</div></td></tr></table></div></td></tr><tr><td><div><table><tr><td><div>Plugins</div></td></tr><tr><td><div>False</div></td></tr><tr><td><div>None</div></td></tr><tr><td><div>[(&#x27;plugin_wiki&#x27;, False, &#x27;http://web2py.com/examples/default/download&#x27;), (&lt;lazyT &#x27;Other Plugins&#x27;&gt;, False, &#x27;http://web2py.com/plugins&#x27;), (&lt;lazyT &#x27;Layout Plugins&#x27;&gt;, False, &#x27;http://web2py.com/layouts&#x27;)]</div></td></tr></table></div></td></tr></table></div></td></tr></table></div></td></tr></table></div></td></tr><tr><td style="font-weight:bold;vertical-align:top;">meta</td><td style="vertical-align:top;">:</td><td><div><table><tr><td style="font-weight:bold;vertical-align:top;">author</td><td style="vertical-align:top;">:</td><td><div>Your Name &lt;you@example.com&gt;</div></td></tr><tr><td style="font-weight:bold;vertical-align:top;">generator</td><td style="vertical-align:top;">:</td><td><div>Web2py Web Framework</div></td></tr><tr><td style="font-weight:bold;vertical-align:top;">keywords</td><td style="vertical-align:top;">:</td><td><div>web2py, python, framework</div></td></tr></table></div></td></tr><tr><td style="font-weight:bold;vertical-align:top;">models_to_run</td><td style="vertical-align:top;">:</td><td><div><table><tr><td><div>^\\w+\\.py$</div></td></tr><tr><td><div>^default/\\w+\\.py$</div></td></tr><tr><td><div>^default/login/\\w+\\.py$</div></td></tr></table></div></td></tr><tr><td style="font-weight:bold;vertical-align:top;">postprocessing</td><td style="vertical-align:top;">:</td><td><div><table></table></div></td></tr><tr><td style="font-weight:bold;vertical-align:top;">session_client</td><td style="vertical-align:top;">:</td><td><div>127.0.0.1</div></td></tr><tr><td style="font-weight:bold;vertical-align:top;">session_cookie_compression_level</td><td style="vertical-align:top;">:</td><td><div>None</div></td></tr><tr><td style="font-weight:bold;vertical-align:top;">session_cookie_expires</td><td style="vertical-align:top;">:</td><td><div>None</div></td></tr><tr><td style="font-weight:bold;vertical-align:top;">session_cookie_key</td><td style="vertical-align:top;">:</td><td><div>None</div></td></tr><tr><td style="font-weight:bold;vertical-align:top;">session_data_name</td><td style="vertical-align:top;">:</td><td><div>session_data_bootup</div></td></tr><tr><td style="font-weight:bold;vertical-align:top;">session_file</td><td style="vertical-align:top;">:</td><td><div>&lt;open file &#x27;/usr/userfs/r/rs1019/iapt/web2py/applications/BootUp/sessions/063/0bd/127.0.0.1-2784d2b5-a3de-4957-8571-5e580bbdd450&#x27;, mode &#x27;rb+&#x27; at 0x7f0930a980c0&gt;</div></td></tr><tr><td style="font-weight:bold;vertical-align:top;">session_filename</td><td style="vertical-align:top;">:</td><td><div>/usr/userfs/r/rs1019/iapt/web2py/applications/BootUp/sessions/127.0.0.1-2784d2b5-a3de-4957-8571-5e580bbdd450</div></td></tr><tr><td style="font-weight:bold;vertical-align:top;">session_hash</td><td style="vertical-align:top;">:</td><td><div>3e9db64e1875799afa60adf209d618b9</div></td></tr><tr><td style="font-weight:bold;vertical-align:top;">session_id</td><td style="vertical-align:top;">:</td><td><div>127.0.0.1-2784d2b5-a3de-4957-8571-5e580bbdd450</div></td></tr><tr><td style="font-weight:bold;vertical-align:top;">session_id_name</td><td style="vertical-align:top;">:</td><td><div>session_id_bootup</div></td></tr><tr><td style="font-weight:bold;vertical-align:top;">session_locked</td><td style="vertical-align:top;">:</td><td><div>True</div></td></tr><tr><td style="font-weight:bold;vertical-align:top;">session_masterapp</td><td style="vertical-align:top;">:</td><td><div>BootUp</div></td></tr><tr><td style="font-weight:bold;vertical-align:top;">session_new</td><td style="vertical-align:top;">:</td><td><div>False</div></td></tr><tr><td style="font-weight:bold;vertical-align:top;">session_storage_type</td><td style="vertical-align:top;">:</td><td><div>file</div></td></tr><tr><td style="font-weight:bold;vertical-align:top;">status</td><td style="vertical-align:top;">:</td><td><div>200</div></td></tr><tr><td style="font-weight:bold;vertical-align:top;">subtitle</td><td style="vertical-align:top;">:</td><td><div></div></td></tr><tr><td style="font-weight:bold;vertical-align:top;">title</td><td style="vertical-align:top;">:</td><td><div>Bootup</div></td></tr><tr><td style="font-weight:bold;vertical-align:top;">view</td><td style="vertical-align:top;">:</td><td><div>default/login.html</div></td></tr></table></div>'
tRp354
sS'locals'
p355
(dp356
S'a'
S'("SELECT  auth_user.id, auth_user.first_name, auth...E (auth_user.username = \'Rory\') LIMIT 1 OFFSET 0;",)'
p357
sS'self'
p358
S'<gluon.dal.SQLiteAdapter object>'
p359
sS'b'
g21
sS'command'
p360
S'"SELECT  auth_user.id, auth_user.first_name, auth...E (auth_user.username = \'Rory\') LIMIT 1 OFFSET 0;"'
p361
sS't0'
p362
S'1416860192.635924'
p363
sssS'traceback'
p364
S'Traceback (most recent call last):\n  File "/usr/userfs/r/rs1019/iapt/web2py/gluon/restricted.py", line 224, in restricted\n    exec ccode in environment\n  File "/usr/userfs/r/rs1019/iapt/web2py/applications/BootUp/controllers/default.py", line 255, in <module>\n  File "/usr/userfs/r/rs1019/iapt/web2py/gluon/globals.py", line 392, in <lambda>\n    self._caller = lambda f: f()\n  File "/usr/userfs/r/rs1019/iapt/web2py/applications/BootUp/controllers/default.py", line 47, in login\n    user = auth.login_bare(request.vars.username, request.vars.password)\n  File "/usr/userfs/r/rs1019/iapt/web2py/gluon/tools.py", line 2155, in login_bare\n    username})\n  File "/usr/userfs/r/rs1019/iapt/web2py/gluon/dal.py", line 9136, in __call__\n    return self._db(query).select(limitby=(0, 1), for_update=for_update, orderby=orderby, orderby_on_limitby=False).first()\n  File "/usr/userfs/r/rs1019/iapt/web2py/gluon/dal.py", line 10749, in select\n    return adapter.select(self.query, fields, attributes)\n  File "/usr/userfs/r/rs1019/iapt/web2py/gluon/dal.py", line 2472, in select\n    return super(SQLiteAdapter, self).select(query, fields, attributes)\n  File "/usr/userfs/r/rs1019/iapt/web2py/gluon/dal.py", line 1881, in select\n    return self._select_aux(sql, fields, attributes)\n  File "/usr/userfs/r/rs1019/iapt/web2py/gluon/dal.py", line 1846, in _select_aux\n    self.execute(sql)\n  File "/usr/userfs/r/rs1019/iapt/web2py/gluon/dal.py", line 1967, in execute\n    return self.log_execute(*a, **b)\n  File "/usr/userfs/r/rs1019/iapt/web2py/gluon/dal.py", line 1961, in log_execute\n    ret = self.cursor.execute(command, *a[1:], **b)\nOperationalError: no such table: auth_user\n'
p365
s.