(dp1
S'output'
p2
S"<type 'exceptions.Exception'> Validation error, field:username <gluon.validators.IS_NOT_IN_DB object at 0x7f09300d5850>"
p3
sS'layer'
p4
S'/usr/userfs/r/rs1019/iapt/web2py/applications/BootUp/controllers/default.py'
p5
sS'code'
p6
S'# -*- coding: utf-8 -*-\n# this file is released under public domain and you can use without limitations\n\n#########################################################################\n## This is a sample controller\n## - index is the default action of any application\n## - user is required for authentication and authorization\n## - download is for downloading files uploaded in the db (does streaming)\n## - api is an example of Hypermedia API support and access control\n#########################################################################\n\n\nCOUNTRIES=( \'United Kingdom\', \'United States\', \'Afghanistan\', \'Albania\', \'Algeria\', \'Andorra\', \'Angola\', \'Antigua and Barbuda\', \'Argentina\', \'Armenia\', \'Australia\', \'Austria\', \'Azerbaijan\', \'Bahamas\', \'Bahrain\', \'Bangladesh\', \'Barbados\', \'Belarus\', \'Belgium\', \'Belize\', \'Benin\', \'Bhutan\', \'Bolivia\', \'Bosnia and Herzegovina\', \'Botswana\', \'Brazil\', \'Brunei\', \'Bulgaria\', \'Burkina Faso\', \'Burundi\', \'Cambodia\', \'Cameroon\', \'Canada\', \'Cape Verde\', \'Central African Republic\', \'Chad\', \'Chile\', \'China\', \'Colombia\', \'Comoros\', \'Congo\', \'Costa Rica\', \'Ivory Coast\', \'Croatia\', \'Cuba\', \'Cyprus\', \'Czech Republic\', \'Denmark\', \'Djibouti\', \'Dominica\', \'Dominican Republic\', \'East Timor\', \'Ecuador\', \'Egypt\', \'El Salvador\', \'Equatorial Guinea\', \'Eritrea\', \'Estonia\', \'Ethiopia\', \'Fiji\', \'Finland\', \'France\', \'Gabon\', \'Gambia\', \'Georgia\', \'Germany\', \'Ghana\', \'Greece\', \'Grenada\', \'Guatemala\', \'Guinea\', \'Guinea-Bissau\', \'Guyana\', \'Haiti\', \'Honduras\', \'Hong Kong\', \'Hungary\', \'Iceland\', \'India\', \'Indonesia\', \'Iran\', \'Iraq\', \'Ireland\', \'Israel\', \'Italy\', \'Jamaica\', \'Japan\', \'Jordan\', \'Kazakhstan\', \'Kenya\', \'Kiribati\', \'North Korea\',\'South Korea\', \'Kuwait\', \'Kyrgyzstan\', \'Laos\', \'Latvia\', \'Lebanon\', \'Lesotho\', \'Liberia\', \'Libya\', \'Liechtenstein\', \'Lithuania\', \'Luxembourg\', \'FYROM\', \'Madagascar\', \'Malawi\', \'Malaysia\', \'Maldives\', \'Mali\', \'Malta\', \'Marshall Islands\', \'Mauritania\', \'Mauritius\', \'Mexico\', \'Micronesia\', \'Moldova\', \'Monaco\', \'Mongolia\', \'Montenegro\', \'Morocco\', \'Mozambique\', \'Myanmar\', \'Namibia\', \'Nauru\', \'Nepal\', \'Netherlands\', \'New Zealand\', \'Nicaragua\', \'Niger\', \'Nigeria\', \'Norway\', \'Oman\', \'Pakistan\', \'Palau\', \'Palestine\', \'Panama\', \'Papua New Guinea\', \'Paraguay\', \'Peru\', \'Philippines\', \'Poland\', \'Portugal\', \'Puerto Rico\', \'Qatar\', \'Romania\', \'Russia\', \'Rwanda\', \'Saint Kitts and Nevis\', \'Saint Lucia\', \'Saint Vincent and the Grenadines\', \'Samoa\', \'San Marino\', \'Sao Tome and Principe\', \'Saudi Arabia\', \'Senegal\', \'Serbia and Montenegro\', \'Seychelles\', \'Sierra Leone\', \'Singapore\', \'Slovakia\', \'Slovenia\', \'Solomon Islands\', \'Somalia\', \'South Africa\', \'Spain\', \'Sri Lanka\', \'Sudan\', \'Suriname\', \'Swaziland\', \'Sweden\', \'Switzerland\', \'Syria\', \'Taiwan\', \'Tajikistan\', \'Tanzania\', \'Thailand\', \'Togo\', \'Tonga\', \'Trinidad and Tobago\', \'Tunisia\', \'Turkey\', \'Turkmenistan\', \'Tuvalu\', \'Uganda\', \'Ukraine\', \'United Arab Emirates\', \'Uruguay\', \'Uzbekistan\', \'Vanuatu\', \'Vatican City\', \'Venezuela\', \'Vietnam\', \'Yemen\', \'Zambia\', \'Zimbabwe\', \'Other\')\nyears = []\nmonths = [ \'01\', \'02\', \'03\', \'04\', \'05\', \'06\', \'07\', \'08\', \'09\', \'10\', \'11\', \'12\' ]\n\nfor i in xrange(100):\n    if i < 10:\n        number = \'0\' + str(i)\n    else:\n        number = str(i)\n\n    years.append(number)\n\n\ndef index():\n    """\n    example action using the internationalization operator T and flash\n    rendered by views/default/index.html or views/generic.html\n\n    if you need a simple wiki simply replace the two lines below with:\n    return auth.wiki()\n    """\n\n    response.flash = T("Welcome to web2py!")\n    return dict(message=T(\'Hello World\'))\n\ndef login():\n\n\n    form = FORM(LEGEND(\'Login\'), INPUT(_type=\'text\', _name=\'username\', _class = \'input-block-level\', _placeholder=\'username\', requires=IS_NOT_EMPTY( error_message=T("Please enter a username"))),\n                 INPUT(_type=\'password\',_name=\'password\', _class = \'input-block-level\', _placeholder=\'password\', requires=IS_NOT_EMPTY(error_message=T("Please enter a password"))), INPUT(_type=\'submit\', _class=\'btn btn-primary\', _value=\'Login\'),\n                 A(\'Register\',_href=URL(\'register\'), _role=\'button\', _class=\'btn btn-info\'))\n\n    if form.process(onvalidation=login_validation).accepted:\n        response.flash = \'form accepted\'\n        user = auth.login_bare(request.vars.username, request.vars.password)\n        if(user is False):\n            response.flash = DIV("Invalid Username/Password Combination", _class=\'alert alert-error\')\n        else:\n            redirect(URL(\'index\'))\n    elif form.errors:\n        response.flash = DIV("Username or Password field is empty", _class=\'alert alert-error\')\n\n\n\n\n    return dict(form=form)\n\ndef login_validation(form):\n    if form.vars.username =="cat":\n        form.errors.username= "Hello Cat"\n    if form.vars.password == None:\n        form.errors.password = "Password can not be empty"\n\n\ndef register():\n\n\n    form= FORM(FIELDSET(\n\n                        LEGEND(\'Personal Information\'),\n                        DIV(LABEL(\'First Name:\', _for=\'first_name\'),INPUT(_id=\'first_name\', _name=\'first_name\', _type=\'text\', _class=\'span4\',requires=IS_NOT_EMPTY(error_message=T("Field cannot be left empty"))),\n                            LABEL(\'Last Name:\', _for=\'last_name\'),INPUT(_id=\'last_name\', _name=\'last_name\', _type=\'text\', _class=\'span4\',requires=IS_NOT_EMPTY(error_message=T("Field cannot be left empty")))\n                            ,_class=\'controls control-group\'),\n\n\n                        DIV( LABEL(\'Date of Birth:\'),\n                             INPUT( _name=\'dob\', _type=\'date\', _class=\'span4\', _placeholder=\'yyyy\',requires=IS_NOT_EMPTY(error_message=T("Field cannot be left empty")))\n                             ,_class="controls controls-row"),\n\n                        LEGEND(\'Login Credentials\'),\n                        DIV(LABEL(\'Username:\', _for=\'username\'),INPUT(_id=\'username\', _name=\'username\', _type=\'text\', _class=\'span4\',requires=[IS_NOT_EMPTY(error_message=T("Field cannot be left empty")), IS_NOT_IN_DB(db, \'auth_user.username\', error_message=\'Username already taken\')]),\n                            LABEL(\'Password:\', _for=\'password\'),INPUT(_id=\'password\', _name=\'password\', _type=\'password\', _class=\'span4\',requires=IS_NOT_EMPTY(error_message=T("Field cannot be left empty"))),\n                            LABEL(\'Confirm Password:\', _for=\'confirm_password\'),INPUT(_id=\'confirm_password\', _name=\'confirm_password\', _type=\'password\', _class=\'span4\'\n                            , requires=[IS_EQUAL_TO(request.vars.password, error_message=T("Passwords do not match")), IS_NOT_EMPTY(error_message=T("Field cannot be left empty"))])\n                            ,_class=\'controls control-group\'),\n\n                        LEGEND(\'Home Address\'),\n                        DIV(LABEL(\'Street:\', _for=\'street\'),INPUT(_id=\'street\', _name=\'street\', _type=\'text\', _class=\'span4\',requires=IS_NOT_EMPTY(error_message=T("Field cannot be left empty"))),\n                            LABEL(\'City:\', _for=\'city\'),INPUT(_id=\'city\', _name=\'city\', _type=\'text\', _class=\'span4\',requires=IS_NOT_EMPTY(error_message=T("Field cannot be left empty"))),\n                            LABEL(\'Postcode:\', _for=\'postcode\'),INPUT(_id=\'postcode\', _name=\'postcode\', _type=\'text\', _class=\'span4\',requires=[IS_NOT_EMPTY(error_message=T("Field cannot be left empty")),\n                            IS_MATCH(\'^[A-Z0-9]{4} [A-Z0-9]{3}$\', error_message="Postcode is not valid" )]),\n                            LABEL(\'Country:\', _for=\'country\'),SELECT(*COUNTRIES, _id=\'country\', _name=\'country\',requires=[IS_NOT_EMPTY(error_message=T("Field cannot be left empty")), IS_IN_SET(COUNTRIES)])\n                            ,_class=\'controls control-group\'),\n\n                        LEGEND(\'Billing Information\'),\n                        DIV(LABEL(\'Card Number:\', _for=\'card_number\'),INPUT(_id=\'card_number\', _name=\'card_number\', _type=\'text\', _class=\'span4\', requires=[IS_NOT_EMPTY(error_message=T("Field cannot be left empty")),\n                            IS_LENGTH(minsize=12, maxsize=12, error_message="Card number must be 12 digits long"), IS_MATCH(\'^[0-9]{12,12}$\', error_message="Card number must be 12 digits long" )]),\n                            LABEL(\'Security Code:\', _for=\'security_code\'),INPUT(_id=\'security_code\', _name=\'security_code\', _type=\'text\', _class=\'span4\',requires=[IS_NOT_EMPTY(error_message=T("Field cannot be left empty")),\n                            IS_LENGTH(minsize=3, maxsize=3, error_message="Security code contain 3 numbers"), IS_MATCH(\'^[0-9]{3}$\', error_message=\'Security code must contain 3 numbers\')])\n                            ,_class=\'controls control-group\'),\n\n                        DIV(\n                            LABEL(\'Expiry Date:\'),\n                            SELECT(*months, _value=\'mm\', _name=\'expiry_date_month\', _id=\'expiry_date_month\'),\n                            SPAN(\' / \'),\n                            SELECT(*years, _value=\'yy\', _name=\'expiry_date_year\', _id=\'expiry_date_year\')\n                            , _class=\'controls controls-row\'),\n\n                        LEGEND(\'Billing Address\'),\n                        DIV(LABEL(INPUT(_id=\'billing_checkbox\', _name=\'billing_checkbox\', _value=\'yes\', _onclick=\'javascript:toggleAddressAvailibility();\', _type=\'checkbox\' ), \'Same as Home Address\',_class=\'checkbox\'),\n                            DIV(LABEL(\'Street:\', _for=\'billing_street\'),INPUT( _name=\'billing_street\', _type=\'text\', _class=\'span4\'), _id=\'billing_street\'),\n                            DIV(LABEL(\'City:\', _for=\'billing_city\'),INPUT( _name=\'billing_city\', _type=\'text\', _class=\'span4\'), _id=\'billing_city\'),\n                            DIV(LABEL(\'Postcode:\', _for=\'billing_postcode\'),INPUT( _name=\'billing_postcode\', _type=\'text\', _class=\'span4\'), _id=\'billing_postcode\'),\n                            DIV(LABEL(\'Country:\', _for=\'billing_country\' ),INPUT( _name=\'billing_country\', _type=\'text\', _class=\'span4\'), _id=\'billing_country\')\n                            ,_class=\'controls control-group last_form_section\'),\n\n                         INPUT(_type=\'submit\', _class=\'btn btn-primary btn-large\', _value=\'Register\')\n\n\n    ))\n\n\n\n\n\n    if form.process(onvalidation=register_validation).accepted:\n\n        expiry_date = request.vars.expiry_date_month + "/" + request.vars.expiry_date_year\n\n\n        addressAlreadyInDBQuery = db((db.address.street == request.vars.street) & (db.address.city == request.vars.city) & (db.address.country == request.vars.country) &(db.address.postcode == request.vars.postcode)).select()\n\n        if(len(addressAlreadyInDBQuery) >0):\n            address = addressAlreadyInDBQuery[0].id\n        else:\n            address = db.address.insert(street = request.vars.street, city = request.vars.city, country = request.vars.country,\n                        postcode = request.vars.postcode)\n\n        bankDetailsAlreadyInDBQuery = db(db.bank_details.card_number == request.vars.card_number).select()\n\n\n        if(len( bankDetailsAlreadyInDBQuery) >0):\n            bank_details = bankDetailsAlreadyInDBQuery[0].id\n\n        else:\n\n            if(request.vars.billing_checkbox == \'yes\'):\n                bank_details = db.bank_details.insert(card_number = request.vars.card_number, security_code = request.vars.security_code,\n                                              address_id = address, expiry_date = expiry_date)\n\n            else:\n                billingAddressAlreadyInDBQuery = db((db.address.street ==request.vars.billing_street) & (db.address.city == request.vars.billing_city)\n                                             & (db.address.country == request.vars.billing_country) &\n                                            (db.address.postcode == request.vars.billing_postcode)).select()\n\n                if(len(billingAddressAlreadyInDBQuery) >0):\n                    bank_address = billingAddressAlreadyInDBQuery[0].id\n                else:\n                    bank_address = db.address.insert(street = request.vars.billing_street, city = request.vars.billing_city, country = request.vars.billing_country,\n                                    postcode = request.vars.billing_postcode)\n\n\n\n                bank_details = db.bank_details.insert(card_number = request.vars.card_number, security_code = request.vars.security_code,\n                                                  address_id = bank_address, expiry_date = request.vars.expiry_date)\n\n\n\n\n\n\n\n        db.auth_user.insert(username = request.vars.username, password = db.auth_user.password.validate(request.vars.password)[0],\n                       first_name = request.vars.first_name, last_name = request.vars.last_name, birthdate = request.vars.dob, bank_details_id = bank_details,\n                       address_id = address)\n\n\n        auth.login_bare(request.vars.username, request.vars.password)\n\n        redirect(URL(\'profile\',\'profile\'))\n\n\n    return dict(form=form)\n\ndef register_validation(form):\n    if form.vars.billing_checkbox != "yes":\n        if form.vars.billing_street =="":\n            form.errors.billing_street = "Street must be entered"\n\n        if form.vars.billing_city =="":\n            form.errors.billing_city = "City must be entered"\n\n        if form.vars.billing_country =="":\n            form.errors.billing_country = "Country must be entered"\n\n        if form.vars.billing_postcode =="":\n            form.errors.billing_postcode = "Postcode must be entered"\n\n    if form.vars.expiry_date_month not in months or form.vars.expiry_date_year not in years:\n        form.errors.expiry_date_year = "Expiry Date must be entered"\n\n\n\ndef user():\n    """\n    exposes:\n    http://..../[app]/default/user/login\n    http://..../[app]/default/user/logout\n    http://..../[app]/default/user/register\n    http://..../[app]/default/user/profile\n    http://..../[app]/default/user/retrieve_password\n    http://..../[app]/default/user/change_password\n    http://..../[app]/default/user/manage_users (requires membership in\n    use @auth.requires_login()\n        @auth.requires_membership(\'group name\')\n        @auth.requires_permission(\'read\',\'table name\',record_id)\n    to decorate functions that need access control\n    """\n    return dict(form=auth())\n\n\n@cache.action()\ndef download():\n    """\n    allows downloading of uploaded files\n    http://..../[app]/default/download/[filename]\n    """\n    return response.download(request, db)\n\n\ndef call():\n    """\n    exposes services. for example:\n    http://..../[app]/default/call/jsonrpc\n    decorate with @services.jsonrpc the functions to expose\n    supports xml, json, xmlrpc, jsonrpc, amfrpc, rss, csv\n    """\n    return service()\n\n\n@auth.requires_login() \ndef api():\n    """\n    this is example of API with access control\n    WEB2PY provides Hypermedia API (Collection+JSON) Experimental\n    """\n    from gluon.contrib.hypermedia import Collection\n    rules = {\n        \'<tablename>\': {\'GET\':{},\'POST\':{},\'PUT\':{},\'DELETE\':{}},\n        }\n    return Collection(db).process(request,response,rules)\n\nresponse._vars=response._caller(register)\n'
p7
sS'snapshot'
p8
(dp9
S'exception'
p10
(dp11
S'__hash__'
p12
S"<method-wrapper '__hash__' of exceptions.Exception object>"
p13
sS'__setattr__'
p14
S"<method-wrapper '__setattr__' of exceptions.Exception object>"
p15
sS'__reduce_ex__'
p16
S'<built-in method __reduce_ex__ of exceptions.Exception object>'
p17
sS'__getslice__'
p18
S"<method-wrapper '__getslice__' of exceptions.Exception object>"
p19
sS'__getitem__'
p20
S"<method-wrapper '__getitem__' of exceptions.Exception object>"
p21
sS'__setstate__'
p22
S'<built-in method __setstate__ of exceptions.Exception object>'
p23
sS'args'
p24
S"('Validation error, field:username <gluon.validators.IS_NOT_IN_DB object at 0x7f09300d5850>',)"
p25
sS'__reduce__'
p26
S'<built-in method __reduce__ of exceptions.Exception object>'
p27
sS'__str__'
p28
S"<method-wrapper '__str__' of exceptions.Exception object>"
p29
sS'__format__'
p30
S'<built-in method __format__ of exceptions.Exception object>'
p31
sS'__getattribute__'
p32
S"<method-wrapper '__getattribute__' of exceptions.Exception object>"
p33
sS'__class__'
p34
S"<type 'exceptions.Exception'>"
p35
sS'__unicode__'
p36
S'<built-in method __unicode__ of exceptions.Exception object>'
p37
sS'__delattr__'
p38
S"<method-wrapper '__delattr__' of exceptions.Exception object>"
p39
sS'__subclasshook__'
p40
S'<built-in method __subclasshook__ of type object>'
p41
sS'__repr__'
p42
S"<method-wrapper '__repr__' of exceptions.Exception object>"
p43
sS'__dict__'
p44
S'{}'
p45
sS'__sizeof__'
p46
S'<built-in method __sizeof__ of exceptions.Exception object>'
p47
sS'__doc__'
p48
S"'Common base class for all non-exit exceptions.'"
p49
sS'__init__'
p50
S"<method-wrapper '__init__' of exceptions.Exception object>"
p51
sS'__new__'
p52
S'<built-in method __new__ of type object>'
p53
ssS'evalue'
p54
S'Validation error, field:username <gluon.validators.IS_NOT_IN_DB object at 0x7f09300d5850>'
p55
sS'request'
p56
cgluon.html
XML_unpickle
p57
(S's\x06e\x00\x00<div><table><tr><td style="font-weight:bold;vertical-align:top;">ajax</td><td style="vertical-align:top;">:</td><td><div>False</div></td></tr><tr><td style="font-weight:bold;vertical-align:top;">application</td><td style="vertical-align:top;">:</td><td><div>BootUp</div></td></tr><tr><td style="font-weight:bold;vertical-align:top;">args</td><td style="vertical-align:top;">:</td><td><div><table></table></div></td></tr><tr><td style="font-weight:bold;vertical-align:top;">cid</td><td style="vertical-align:top;">:</td><td><div>None</div></td></tr><tr><td style="font-weight:bold;vertical-align:top;">client</td><td style="vertical-align:top;">:</td><td><div>127.0.0.1</div></td></tr><tr><td style="font-weight:bold;vertical-align:top;">controller</td><td style="vertical-align:top;">:</td><td><div>default</div></td></tr><tr><td style="font-weight:bold;vertical-align:top;">cookies</td><td style="vertical-align:top;">:</td><td><div><table><tr><td style="font-weight:bold;vertical-align:top;">session_id_admin</td><td style="vertical-align:top;">:</td><td><div>127.0.0.1-7a3df428-1481-441b-8abf-dd1d8b3140c7<table><tr><td style="font-weight:bold;vertical-align:top;">comment</td><td style="vertical-align:top;">:</td><td><div></div></td></tr><tr><td style="font-weight:bold;vertical-align:top;">domain</td><td style="vertical-align:top;">:</td><td><div></div></td></tr><tr><td style="font-weight:bold;vertical-align:top;">expires</td><td style="vertical-align:top;">:</td><td><div></div></td></tr><tr><td style="font-weight:bold;vertical-align:top;">httponly</td><td style="vertical-align:top;">:</td><td><div></div></td></tr><tr><td style="font-weight:bold;vertical-align:top;">max-age</td><td style="vertical-align:top;">:</td><td><div></div></td></tr><tr><td style="font-weight:bold;vertical-align:top;">path</td><td style="vertical-align:top;">:</td><td><div></div></td></tr><tr><td style="font-weight:bold;vertical-align:top;">secure</td><td style="vertical-align:top;">:</td><td><div></div></td></tr><tr><td style="font-weight:bold;vertical-align:top;">version</td><td style="vertical-align:top;">:</td><td><div></div></td></tr></table></div></td></tr><tr><td style="font-weight:bold;vertical-align:top;">session_id_bootup</td><td style="vertical-align:top;">:</td><td><div>127.0.0.1-2784d2b5-a3de-4957-8571-5e580bbdd450<table><tr><td style="font-weight:bold;vertical-align:top;">comment</td><td style="vertical-align:top;">:</td><td><div></div></td></tr><tr><td style="font-weight:bold;vertical-align:top;">domain</td><td style="vertical-align:top;">:</td><td><div></div></td></tr><tr><td style="font-weight:bold;vertical-align:top;">expires</td><td style="vertical-align:top;">:</td><td><div></div></td></tr><tr><td style="font-weight:bold;vertical-align:top;">httponly</td><td style="vertical-align:top;">:</td><td><div></div></td></tr><tr><td style="font-weight:bold;vertical-align:top;">max-age</td><td style="vertical-align:top;">:</td><td><div></div></td></tr><tr><td style="font-weight:bold;vertical-align:top;">path</td><td style="vertical-align:top;">:</td><td><div></div></td></tr><tr><td style="font-weight:bold;vertical-align:top;">secure</td><td style="vertical-align:top;">:</td><td><div></div></td></tr><tr><td style="font-weight:bold;vertical-align:top;">version</td><td style="vertical-align:top;">:</td><td><div></div></td></tr></table></div></td></tr><tr><td style="font-weight:bold;vertical-align:top;">session_id_welcome</td><td style="vertical-align:top;">:</td><td><div>127.0.0.1-81d337cb-6f61-48f4-9aff-32f75feb8c7d<table><tr><td style="font-weight:bold;vertical-align:top;">comment</td><td style="vertical-align:top;">:</td><td><div></div></td></tr><tr><td style="font-weight:bold;vertical-align:top;">domain</td><td style="vertical-align:top;">:</td><td><div></div></td></tr><tr><td style="font-weight:bold;vertical-align:top;">expires</td><td style="vertical-align:top;">:</td><td><div></div></td></tr><tr><td style="font-weight:bold;vertical-align:top;">httponly</td><td style="vertical-align:top;">:</td><td><div></div></td></tr><tr><td style="font-weight:bold;vertical-align:top;">max-age</td><td style="vertical-align:top;">:</td><td><div></div></td></tr><tr><td style="font-weight:bold;vertical-align:top;">path</td><td style="vertical-align:top;">:</td><td><div></div></td></tr><tr><td style="font-weight:bold;vertical-align:top;">secure</td><td style="vertical-align:top;">:</td><td><div></div></td></tr><tr><td style="font-weight:bold;vertical-align:top;">version</td><td style="vertical-align:top;">:</td><td><div></div></td></tr></table></div></td></tr></table></div></td></tr><tr><td style="font-weight:bold;vertical-align:top;">env</td><td style="vertical-align:top;">:</td><td><div><table><tr><td style="font-weight:bold;vertical-align:top;">CONTENT_LENGTH</td><td style="vertical-align:top;">:</td><td><div>2243</div></td></tr><tr><td style="font-weight:bold;vertical-align:top;">CONTENT_TYPE</td><td style="vertical-align:top;">:</td><td><div>multipart/form-data; boundary=----WebKitFormBoundaryoRWyam055r2HKsgG</div></td></tr><tr><td style="font-weight:bold;vertical-align:top;">HTTP_ACCEPT</td><td style="vertical-align:top;">:</td><td><div>text/html,application/xhtml+xml,application/xml;q=0.9,image/webp,*/*;q=0.8</div></td></tr><tr><td style="font-weight:bold;vertical-align:top;">HTTP_ACCEPT_ENCODING</td><td style="vertical-align:top;">:</td><td><div>gzip, deflate</div></td></tr><tr><td style="font-weight:bold;vertical-align:top;">HTTP_ACCEPT_LANGUAGE</td><td style="vertical-align:top;">:</td><td><div>en-GB,en-US;q=0.8,en;q=0.6</div></td></tr><tr><td style="font-weight:bold;vertical-align:top;">HTTP_CACHE_CONTROL</td><td style="vertical-align:top;">:</td><td><div>max-age=0</div></td></tr><tr><td style="font-weight:bold;vertical-align:top;">HTTP_CONNECTION</td><td style="vertical-align:top;">:</td><td><div>keep-alive</div></td></tr><tr><td style="font-weight:bold;vertical-align:top;">HTTP_CONTENT_LENGTH</td><td style="vertical-align:top;">:</td><td><div>2243</div></td></tr><tr><td style="font-weight:bold;vertical-align:top;">HTTP_CONTENT_TYPE</td><td style="vertical-align:top;">:</td><td><div>multipart/form-data; boundary=----WebKitFormBoundaryoRWyam055r2HKsgG</div></td></tr><tr><td style="font-weight:bold;vertical-align:top;">HTTP_COOKIE</td><td style="vertical-align:top;">:</td><td><div>session_id_welcome=127.0.0.1-81d337cb-6f61-48f4-9aff-32f75feb8c7d; session_id_admin=127.0.0.1-7a3df428-1481-441b-8abf-dd1d8b3140c7; session_id_bootup=127.0.0.1-2784d2b5-a3de-4957-8571-5e580bbdd450</div></td></tr><tr><td style="font-weight:bold;vertical-align:top;">HTTP_HOST</td><td style="vertical-align:top;">:</td><td><div>127.0.0.1:8000</div></td></tr><tr><td style="font-weight:bold;vertical-align:top;">HTTP_ORIGIN</td><td style="vertical-align:top;">:</td><td><div>http://127.0.0.1:8000</div></td></tr><tr><td style="font-weight:bold;vertical-align:top;">HTTP_REFERER</td><td style="vertical-align:top;">:</td><td><div>http://127.0.0.1:8000/BootUp/default/register</div></td></tr><tr><td style="font-weight:bold;vertical-align:top;">HTTP_USER_AGENT</td><td style="vertical-align:top;">:</td><td><div>Mozilla/5.0 (X11; Linux x86_64) AppleWebKit/537.36 (KHTML, like Gecko) Chrome/39.0.2171.65 Safari/537.36</div></td></tr><tr><td style="font-weight:bold;vertical-align:top;">PATH_INFO</td><td style="vertical-align:top;">:</td><td><div>/BootUp/default/register</div></td></tr><tr><td style="font-weight:bold;vertical-align:top;">QUERY_STRING</td><td style="vertical-align:top;">:</td><td><div></div></td></tr><tr><td style="font-weight:bold;vertical-align:top;">REMOTE_ADDR</td><td style="vertical-align:top;">:</td><td><div>127.0.0.1</div></td></tr><tr><td style="font-weight:bold;vertical-align:top;">REMOTE_PORT</td><td style="vertical-align:top;">:</td><td><div>52651</div></td></tr><tr><td style="font-weight:bold;vertical-align:top;">REQUEST_METHOD</td><td style="vertical-align:top;">:</td><td><div>POST</div></td></tr><tr><td style="font-weight:bold;vertical-align:top;">SCRIPT_NAME</td><td style="vertical-align:top;">:</td><td><div></div></td></tr><tr><td style="font-weight:bold;vertical-align:top;">SERVER_NAME</td><td style="vertical-align:top;">:</td><td><div>pc975s</div></td></tr><tr><td style="font-weight:bold;vertical-align:top;">SERVER_PORT</td><td style="vertical-align:top;">:</td><td><div>8000</div></td></tr><tr><td style="font-weight:bold;vertical-align:top;">SERVER_PROTOCOL</td><td style="vertical-align:top;">:</td><td><div>HTTP/1.1</div></td></tr><tr><td style="font-weight:bold;vertical-align:top;">SERVER_SOFTWARE</td><td style="vertical-align:top;">:</td><td><div>Rocket 1.2.6</div></td></tr><tr><td style="font-weight:bold;vertical-align:top;">app_folders</td><td style="vertical-align:top;">:</td><td><div>set([&#x27;/usr/userfs/r/rs1019/iapt/web2py/applications/admin/&#x27;, &#x27;/usr/userfs/r/rs1019/iapt/web2py/applications/welcome/&#x27;, &#x27;/usr/userfs/r/rs1019/iapt/web2py/applications/copied/&#x27;, &#x27;/usr/userfs/r/rs1019/iapt/web2py/applications/BootUp/&#x27;, &#x27;/usr/userfs/r/rs1019/iapt/web2py/applications/CongoWithBootstrap/&#x27;])</div></td></tr><tr><td style="font-weight:bold;vertical-align:top;">applications_parent</td><td style="vertical-align:top;">:</td><td><div>/usr/userfs/r/rs1019/iapt/web2py</div></td></tr><tr><td style="font-weight:bold;vertical-align:top;">cmd_args</td><td style="vertical-align:top;">:</td><td><div><table></table></div></td></tr><tr><td style="font-weight:bold;vertical-align:top;">cmd_options</td><td style="vertical-align:top;">:</td><td><div>&lt;Values at 0x7f096221a440: {&#x27;verbose&#x27;: False, &#x27;ip&#x27;: &#x27;127.0.0.1&#x27;, &#x27;debuglevel&#x27;: 30, &#x27;with_scheduler&#x27;: False, &#x27;ips&#x27;: [&#x27;144.32.179.175&#x27;], &#x27;shutdown_timeout&#x27;: 5, &#x27;taskbar&#x27;: False, &#x27;with_coverage&#x27;: False, &#x27;scheduler_groups&#x27;: None, &#x27;port&#x27;: 8000, &#x27;maxthreads&#x27;: None, &#x27;softcron&#x27;: False, &#x27;server_name&#x27;: &#x27;pc975s&#x27;, &#x27;bpython&#x27;: False, &#x27;nogui&#x27;: False, &#x27;pid_filename&#x27;: &#x27;httpserver.pid&#x27;, &#x27;extcron&#x27;: False, &#x27;runcron&#x27;: False, &#x27;run_system_tests&#x27;: False, &#x27;test&#x27;: None, &#x27;folder&#x27;: &#x27;/usr/userfs/r/rs1019/iapt/web2py&#x27;, &#x27;config&#x27;: &#x27;&#x27;, &#x27;minthreads&#x27;: None, &#x27;shell&#x27;: None, &#x27;run&#x27;: &#x27;&#x27;, &#x27;log_filename&#x27;: &#x27;httpserver.log&#x27;, &#x27;profiler_dir&#x27;: None, &#x27;args&#x27;: [&#x27;&#x27;], &#x27;socket_timeout&#x27;: 5, &#x27;ssl_ca_certificate&#x27;: None, &#x27;scheduler&#x27;: None, &#x27;interfaces&#x27;: None, &#x27;ssl_private_key&#x27;: &#x27;&#x27;, &#x27;gae&#x27;: None, &#x27;password&#x27;: &#x27;&lt;ask&gt;&#x27;, &#x27;request_queue_size&#x27;: 5, &#x27;ssl_certificate&#x27;: &#x27;&#x27;, &#x27;cronjob&#x27;: False, &#x27;numthreads&#x27;: None, &#x27;quiet&#x27;: False, &#x27;import_models&#x27;: False, &#x27;timeout&#x27;: 10, &#x27;plain&#x27;: False, &#x27;nobanner&#x27;: False}&gt;</div></td></tr><tr><td style="font-weight:bold;vertical-align:top;">content_length</td><td style="vertical-align:top;">:</td><td><div>2243</div></td></tr><tr><td style="font-weight:bold;vertical-align:top;">content_type</td><td style="vertical-align:top;">:</td><td><div>multipart/form-data; boundary=----WebKitFormBoundaryoRWyam055r2HKsgG</div></td></tr><tr><td style="font-weight:bold;vertical-align:top;">db_sessions</td><td style="vertical-align:top;">:</td><td><div>set([])</div></td></tr><tr><td style="font-weight:bold;vertical-align:top;">debugging</td><td style="vertical-align:top;">:</td><td><div>False</div></td></tr><tr><td style="font-weight:bold;vertical-align:top;">gluon_parent</td><td style="vertical-align:top;">:</td><td><div>/usr/userfs/r/rs1019/iapt/web2py</div></td></tr><tr><td style="font-weight:bold;vertical-align:top;">http_accept</td><td style="vertical-align:top;">:</td><td><div>text/html,application/xhtml+xml,application/xml;q=0.9,image/webp,*/*;q=0.8</div></td></tr><tr><td style="font-weight:bold;vertical-align:top;">http_accept_encoding</td><td style="vertical-align:top;">:</td><td><div>gzip, deflate</div></td></tr><tr><td style="font-weight:bold;vertical-align:top;">http_accept_language</td><td style="vertical-align:top;">:</td><td><div>en-GB,en-US;q=0.8,en;q=0.6</div></td></tr><tr><td style="font-weight:bold;vertical-align:top;">http_cache_control</td><td style="vertical-align:top;">:</td><td><div>max-age=0</div></td></tr><tr><td style="font-weight:bold;vertical-align:top;">http_connection</td><td style="vertical-align:top;">:</td><td><div>keep-alive</div></td></tr><tr><td style="font-weight:bold;vertical-align:top;">http_content_length</td><td style="vertical-align:top;">:</td><td><div>2243</div></td></tr><tr><td style="font-weight:bold;vertical-align:top;">http_content_type</td><td style="vertical-align:top;">:</td><td><div>multipart/form-data; boundary=----WebKitFormBoundaryoRWyam055r2HKsgG</div></td></tr><tr><td style="font-weight:bold;vertical-align:top;">http_cookie</td><td style="vertical-align:top;">:</td><td><div>session_id_welcome=127.0.0.1-81d337cb-6f61-48f4-9aff-32f75feb8c7d; session_id_admin=127.0.0.1-7a3df428-1481-441b-8abf-dd1d8b3140c7; session_id_bootup=127.0.0.1-2784d2b5-a3de-4957-8571-5e580bbdd450</div></td></tr><tr><td style="font-weight:bold;vertical-align:top;">http_host</td><td style="vertical-align:top;">:</td><td><div>127.0.0.1:8000</div></td></tr><tr><td style="font-weight:bold;vertical-align:top;">http_origin</td><td style="vertical-align:top;">:</td><td><div>http://127.0.0.1:8000</div></td></tr><tr><td style="font-weight:bold;vertical-align:top;">http_referer</td><td style="vertical-align:top;">:</td><td><div>http://127.0.0.1:8000/BootUp/default/register</div></td></tr><tr><td style="font-weight:bold;vertical-align:top;">http_user_agent</td><td style="vertical-align:top;">:</td><td><div>Mozilla/5.0 (X11; Linux x86_64) AppleWebKit/537.36 (KHTML, like Gecko) Chrome/39.0.2171.65 Safari/537.36</div></td></tr><tr><td style="font-weight:bold;vertical-align:top;">is_jython</td><td style="vertical-align:top;">:</td><td><div>False</div></td></tr><tr><td style="font-weight:bold;vertical-align:top;">is_pypy</td><td style="vertical-align:top;">:</td><td><div>False</div></td></tr><tr><td style="font-weight:bold;vertical-align:top;">is_source</td><td style="vertical-align:top;">:</td><td><div>True</div></td></tr><tr><td style="font-weight:bold;vertical-align:top;">local_hosts</td><td style="vertical-align:top;">:</td><td><div><table><tr><td><div>pc975s</div></td></tr><tr><td><div>::ffff:127.0.0.1</div></td></tr><tr><td><div>::1</div></td></tr><tr><td><div>pc975s.cs.york.ac.uk</div></td></tr><tr><td><div>144.32.179.175</div></td></tr><tr><td><div>127.0.0.1</div></td></tr></table></div></td></tr><tr><td style="font-weight:bold;vertical-align:top;">path_info</td><td style="vertical-align:top;">:</td><td><div>/BootUp/default/register</div></td></tr><tr><td style="font-weight:bold;vertical-align:top;">query_string</td><td style="vertical-align:top;">:</td><td><div></div></td></tr><tr><td style="font-weight:bold;vertical-align:top;">remote_addr</td><td style="vertical-align:top;">:</td><td><div>127.0.0.1</div></td></tr><tr><td style="font-weight:bold;vertical-align:top;">remote_port</td><td style="vertical-align:top;">:</td><td><div>52651</div></td></tr><tr><td style="font-weight:bold;vertical-align:top;">request_method</td><td style="vertical-align:top;">:</td><td><div>POST</div></td></tr><tr><td style="font-weight:bold;vertical-align:top;">request_uri</td><td style="vertical-align:top;">:</td><td><div>/BootUp/default/register</div></td></tr><tr><td style="font-weight:bold;vertical-align:top;">script_name</td><td style="vertical-align:top;">:</td><td><div></div></td></tr><tr><td style="font-weight:bold;vertical-align:top;">server_name</td><td style="vertical-align:top;">:</td><td><div>pc975s</div></td></tr><tr><td style="font-weight:bold;vertical-align:top;">server_port</td><td style="vertical-align:top;">:</td><td><div>8000</div></td></tr><tr><td style="font-weight:bold;vertical-align:top;">server_protocol</td><td style="vertical-align:top;">:</td><td><div>HTTP/1.1</div></td></tr><tr><td style="font-weight:bold;vertical-align:top;">server_software</td><td style="vertical-align:top;">:</td><td><div>Rocket 1.2.6</div></td></tr><tr><td style="font-weight:bold;vertical-align:top;">web2py_path</td><td style="vertical-align:top;">:</td><td><div>/usr/userfs/r/rs1019/iapt/web2py</div></td></tr><tr><td style="font-weight:bold;vertical-align:top;">web2py_version</td><td style="vertical-align:top;">:</td><td><div>2.9.11-stable+timestamp.2014.09.15.23.35.11</div></td></tr><tr><td style="font-weight:bold;vertical-align:top;">wsgi.errors</td><td style="vertical-align:top;">:</td><td><div>&lt;open file &#x27;&lt;stderr&gt;&#x27;, mode &#x27;w&#x27; at 0x7f096a55d1e0&gt;</div></td></tr><tr><td style="font-weight:bold;vertical-align:top;">wsgi.file_wrapper</td><td style="vertical-align:top;">:</td><td><div>&lt;class wsgiref.util.FileWrapper at 0x7f09622b4668&gt;</div></td></tr><tr><td style="font-weight:bold;vertical-align:top;">wsgi.input</td><td style="vertical-align:top;">:</td><td><div>&lt;socket._fileobject object at 0x7f0930868c50&gt;</div></td></tr><tr><td style="font-weight:bold;vertical-align:top;">wsgi.multiprocess</td><td style="vertical-align:top;">:</td><td><div>False</div></td></tr><tr><td style="font-weight:bold;vertical-align:top;">wsgi.multithread</td><td style="vertical-align:top;">:</td><td><div>True</div></td></tr><tr><td style="font-weight:bold;vertical-align:top;">wsgi.run_once</td><td style="vertical-align:top;">:</td><td><div>False</div></td></tr><tr><td style="font-weight:bold;vertical-align:top;">wsgi.url_scheme</td><td style="vertical-align:top;">:</td><td><div>http</div></td></tr><tr><td style="font-weight:bold;vertical-align:top;">wsgi.version</td><td style="vertical-align:top;">:</td><td><div><table><tr><td><div>1</div></td></tr><tr><td><div>0</div></td></tr></table></div></td></tr><tr><td style="font-weight:bold;vertical-align:top;">wsgi_errors</td><td style="vertical-align:top;">:</td><td><div>&lt;open file &#x27;&lt;stderr&gt;&#x27;, mode &#x27;w&#x27; at 0x7f096a55d1e0&gt;</div></td></tr><tr><td style="font-weight:bold;vertical-align:top;">wsgi_file_wrapper</td><td style="vertical-align:top;">:</td><td><div>&lt;class wsgiref.util.FileWrapper at 0x7f09622b4668&gt;</div></td></tr><tr><td style="font-weight:bold;vertical-align:top;">wsgi_input</td><td style="vertical-align:top;">:</td><td><div>&lt;socket._fileobject object at 0x7f0930868c50&gt;</div></td></tr><tr><td style="font-weight:bold;vertical-align:top;">wsgi_multiprocess</td><td style="vertical-align:top;">:</td><td><div>False</div></td></tr><tr><td style="font-weight:bold;vertical-align:top;">wsgi_multithread</td><td style="vertical-align:top;">:</td><td><div>True</div></td></tr><tr><td style="font-weight:bold;vertical-align:top;">wsgi_run_once</td><td style="vertical-align:top;">:</td><td><div>False</div></td></tr><tr><td style="font-weight:bold;vertical-align:top;">wsgi_url_scheme</td><td style="vertical-align:top;">:</td><td><div>http</div></td></tr><tr><td style="font-weight:bold;vertical-align:top;">wsgi_version</td><td style="vertical-align:top;">:</td><td><div><table><tr><td><div>1</div></td></tr><tr><td><div>0</div></td></tr></table></div></td></tr></table></div></td></tr><tr><td style="font-weight:bold;vertical-align:top;">extension</td><td style="vertical-align:top;">:</td><td><div>html</div></td></tr><tr><td style="font-weight:bold;vertical-align:top;">folder</td><td style="vertical-align:top;">:</td><td><div>/usr/userfs/r/rs1019/iapt/web2py/applications/BootUp/</div></td></tr><tr><td style="font-weight:bold;vertical-align:top;">function</td><td style="vertical-align:top;">:</td><td><div>register</div></td></tr><tr><td style="font-weight:bold;vertical-align:top;">global_settings</td><td style="vertical-align:top;">:</td><td><div><table><tr><td style="font-weight:bold;vertical-align:top;">app_folders</td><td style="vertical-align:top;">:</td><td><div>set([&#x27;/usr/userfs/r/rs1019/iapt/web2py/applications/admin/&#x27;, &#x27;/usr/userfs/r/rs1019/iapt/web2py/applications/welcome/&#x27;, &#x27;/usr/userfs/r/rs1019/iapt/web2py/applications/copied/&#x27;, &#x27;/usr/userfs/r/rs1019/iapt/web2py/applications/BootUp/&#x27;, &#x27;/usr/userfs/r/rs1019/iapt/web2py/applications/CongoWithBootstrap/&#x27;])</div></td></tr><tr><td style="font-weight:bold;vertical-align:top;">applications_parent</td><td style="vertical-align:top;">:</td><td><div>/usr/userfs/r/rs1019/iapt/web2py</div></td></tr><tr><td style="font-weight:bold;vertical-align:top;">cmd_args</td><td style="vertical-align:top;">:</td><td><div><table></table></div></td></tr><tr><td style="font-weight:bold;vertical-align:top;">cmd_options</td><td style="vertical-align:top;">:</td><td><div>&lt;Values at 0x7f096221a440: {&#x27;verbose&#x27;: False, &#x27;ip&#x27;: &#x27;127.0.0.1&#x27;, &#x27;debuglevel&#x27;: 30, &#x27;with_scheduler&#x27;: False, &#x27;ips&#x27;: [&#x27;144.32.179.175&#x27;], &#x27;shutdown_timeout&#x27;: 5, &#x27;taskbar&#x27;: False, &#x27;with_coverage&#x27;: False, &#x27;scheduler_groups&#x27;: None, &#x27;port&#x27;: 8000, &#x27;maxthreads&#x27;: None, &#x27;softcron&#x27;: False, &#x27;server_name&#x27;: &#x27;pc975s&#x27;, &#x27;bpython&#x27;: False, &#x27;nogui&#x27;: False, &#x27;pid_filename&#x27;: &#x27;httpserver.pid&#x27;, &#x27;extcron&#x27;: False, &#x27;runcron&#x27;: False, &#x27;run_system_tests&#x27;: False, &#x27;test&#x27;: None, &#x27;folder&#x27;: &#x27;/usr/userfs/r/rs1019/iapt/web2py&#x27;, &#x27;config&#x27;: &#x27;&#x27;, &#x27;minthreads&#x27;: None, &#x27;shell&#x27;: None, &#x27;run&#x27;: &#x27;&#x27;, &#x27;log_filename&#x27;: &#x27;httpserver.log&#x27;, &#x27;profiler_dir&#x27;: None, &#x27;args&#x27;: [&#x27;&#x27;], &#x27;socket_timeout&#x27;: 5, &#x27;ssl_ca_certificate&#x27;: None, &#x27;scheduler&#x27;: None, &#x27;interfaces&#x27;: None, &#x27;ssl_private_key&#x27;: &#x27;&#x27;, &#x27;gae&#x27;: None, &#x27;password&#x27;: &#x27;&lt;ask&gt;&#x27;, &#x27;request_queue_size&#x27;: 5, &#x27;ssl_certificate&#x27;: &#x27;&#x27;, &#x27;cronjob&#x27;: False, &#x27;numthreads&#x27;: None, &#x27;quiet&#x27;: False, &#x27;import_models&#x27;: False, &#x27;timeout&#x27;: 10, &#x27;plain&#x27;: False, &#x27;nobanner&#x27;: False}&gt;</div></td></tr><tr><td style="font-weight:bold;vertical-align:top;">db_sessions</td><td style="vertical-align:top;">:</td><td><div>set([])</div></td></tr><tr><td style="font-weight:bold;vertical-align:top;">debugging</td><td style="vertical-align:top;">:</td><td><div>False</div></td></tr><tr><td style="font-weight:bold;vertical-align:top;">gluon_parent</td><td style="vertical-align:top;">:</td><td><div>/usr/userfs/r/rs1019/iapt/web2py</div></td></tr><tr><td style="font-weight:bold;vertical-align:top;">is_jython</td><td style="vertical-align:top;">:</td><td><div>False</div></td></tr><tr><td style="font-weight:bold;vertical-align:top;">is_pypy</td><td style="vertical-align:top;">:</td><td><div>False</div></td></tr><tr><td style="font-weight:bold;vertical-align:top;">is_source</td><td style="vertical-align:top;">:</td><td><div>True</div></td></tr><tr><td style="font-weight:bold;vertical-align:top;">local_hosts</td><td style="vertical-align:top;">:</td><td><div><table><tr><td><div>pc975s</div></td></tr><tr><td><div>::ffff:127.0.0.1</div></td></tr><tr><td><div>::1</div></td></tr><tr><td><div>pc975s.cs.york.ac.uk</div></td></tr><tr><td><div>144.32.179.175</div></td></tr><tr><td><div>127.0.0.1</div></td></tr></table></div></td></tr><tr><td style="font-weight:bold;vertical-align:top;">web2py_version</td><td style="vertical-align:top;">:</td><td><div>2.9.11-stable+timestamp.2014.09.15.23.35.11</div></td></tr></table></div></td></tr><tr><td style="font-weight:bold;vertical-align:top;">is_https</td><td style="vertical-align:top;">:</td><td><div>False</div></td></tr><tr><td style="font-weight:bold;vertical-align:top;">is_local</td><td style="vertical-align:top;">:</td><td><div>True</div></td></tr><tr><td style="font-weight:bold;vertical-align:top;">is_restful</td><td style="vertical-align:top;">:</td><td><div>False</div></td></tr><tr><td style="font-weight:bold;vertical-align:top;">is_sheduler</td><td style="vertical-align:top;">:</td><td><div>None</div></td></tr><tr><td style="font-weight:bold;vertical-align:top;">is_shell</td><td style="vertical-align:top;">:</td><td><div>None</div></td></tr><tr><td style="font-weight:bold;vertical-align:top;">now</td><td style="vertical-align:top;">:</td><td><div>datetime.datetime(2014, 11, 24, 20, 17, 43, 793378)</div></td></tr><tr><td style="font-weight:bold;vertical-align:top;">raw_args</td><td style="vertical-align:top;">:</td><td><div></div></td></tr><tr><td style="font-weight:bold;vertical-align:top;">raw_extension</td><td style="vertical-align:top;">:</td><td><div>None</div></td></tr><tr><td style="font-weight:bold;vertical-align:top;">url</td><td style="vertical-align:top;">:</td><td><div>/BootUp/default/register</div></td></tr><tr><td style="font-weight:bold;vertical-align:top;">utcnow</td><td style="vertical-align:top;">:</td><td><div>datetime.datetime(2014, 11, 24, 20, 17, 43, 793388)</div></td></tr><tr><td style="font-weight:bold;vertical-align:top;">uuid</td><td style="vertical-align:top;">:</td><td><div>BootUp/127.0.0.1.2014-11-24.20-17-43.1bb18cea-01c1-48e3-8035-55cd17a6b265</div></td></tr><tr><td style="font-weight:bold;vertical-align:top;">wsgi</td><td style="vertical-align:top;">:</td><td><div>&lt;gluon.main.LazyWSGI object at 0x7f0930c1c890&gt;</div></td></tr></table></div>'
tRp58
sS'frames'
p59
(lp60
(dp61
S'file'
p62
S'/usr/userfs/r/rs1019/iapt/web2py/gluon/restricted.py'
p63
sS'dump'
p64
(dp65
S'environment'
p66
S"{'A': <class 'gluon.html.A'>, 'ANY_OF': <class 'gluon.validators.ANY_OF'>, 'ASSIGNJS': <function ASSIGNJS>, 'Auth': <class 'gluon.tools.Auth'>, 'B': <class 'gluon.html.B'>, 'BEAUTIFY': <class 'gluon.html.BEAUTIFY'>, 'BODY': <class 'gluon.html.BODY'>, 'BR': <class 'gluon.html.BR'>, 'BUTTON': <class 'gluon.html.BUTTON'>, 'CAT': <class 'gluon.html.CAT'>, ...}"
p67
sS'ccode'
p68
S'<code object <module> at 0x7f0930868eb0, file "/...ications/BootUp/controllers/default.py", line 13>'
p69
ssS'lnum'
p70
I224
sS'lines'
p71
(dp72
I224
S'        exec ccode in environment'
p73
sI225
S'    except HTTP:'
p74
sI226
S'        raise'
p75
sI227
S'    except RestrictedError:'
p76
sI228
S'        # do not encapsulate (obfuscate) the original RestrictedError'
p77
sI219
S'    try:'
p78
sI220
S'        if isinstance(code, types.CodeType):'
p79
sI221
S'            ccode = code'
p80
sI222
S'        else:'
p81
sI223
S'            ccode = compile2(code, layer)'
p82
ssS'call'
p83
S"(code='# -*- coding: utf-8 -*-\\n# this file is released ...ules)\\n\\nresponse._vars=response._caller(register)\\n', environment={'A': <class 'gluon.html.A'>, 'ANY_OF': <class 'gluon.validators.ANY_OF'>, 'ASSIGNJS': <function ASSIGNJS>, 'Auth': <class 'gluon.tools.Auth'>, 'B': <class 'gluon.html.B'>, 'BEAUTIFY': <class 'gluon.html.BEAUTIFY'>, 'BODY': <class 'gluon.html.BODY'>, 'BR': <class 'gluon.html.BR'>, 'BUTTON': <class 'gluon.html.BUTTON'>, 'CAT': <class 'gluon.html.CAT'>, ...}, layer='/usr/userfs/r/rs1019/iapt/web2py/applications/BootUp/controllers/default.py')"
p84
sS'func'
p85
S'restricted'
p86
sa(dp87
g62
S'/usr/userfs/r/rs1019/iapt/web2py/applications/BootUp/controllers/default.py'
p88
sg64
(dp89
sg70
I255
sg71
(dp90
I244
S'def api():'
p91
sI245
S'    """'
p92
sI246
S'    this is example of API with access control'
p93
sI247
S'    WEB2PY provides Hypermedia API (Collection+JSON) Experimental'
p94
sI248
S'    """'
p95
sI249
S'    from gluon.contrib.hypermedia import Collection'
p96
sI250
S'    rules = {'
p97
sI251
S"        '<tablename>': {'GET':{},'POST':{},'PUT':{},'DELETE':{}},"
p98
sI252
S'        }'
p99
sI253
S'    return Collection(db).process(request,response,rules)'
p100
ssg83
S'()'
p101
sg85
S'<module>'
p102
sa(dp103
g62
S'/usr/userfs/r/rs1019/iapt/web2py/gluon/globals.py'
p104
sg64
(dp105
S'self'
p106
S'undefined'
p107
sS'f'
S'<function register>'
p108
ssg70
I392
sg71
(dp109
I387
S"        self.flash = ''            # used by the default view layout"
p110
sI388
S'        self.meta = Storage()      # used by web2py_ajax.html'
p111
sI389
S'        self.menu = []             # used by the default view layout'
p112
sI390
S'        self.files = []            # used by web2py_ajax.html'
p113
sI391
S'        self._vars = None'
p114
sI392
S'        self._caller = lambda f: f()'
p115
sI393
S'        self._view_environment = None'
p116
sI394
S'        self._custom_commit = None'
p117
sI395
S'        self._custom_rollback = None'
p118
sI396
S"        self.generic_patterns = ['*']"
p119
ssg83
S'(f=<function register>)'
p120
sg85
S'<lambda>'
p121
sa(dp122
g62
S'/usr/userfs/r/rs1019/iapt/web2py/applications/BootUp/controllers/default.py'
p123
sg64
(dp124
S').accepted'
p125
g107
sS'form.process'
p126
S'<bound method FORM.process of <gluon.html.FORM object>>'
p127
sS'global register_validation'
p128
S'<function register_validation>'
p129
sS'onvalidation'
p130
g107
sS'form'
p131
S'<gluon.html.FORM object>'
p132
ssg70
I128
sg71
(dp133
I128
S'    if form.process(onvalidation=register_validation).accepted:'
p134
sI129
S''
sI130
S'        expiry_date = request.vars.expiry_date_month + "/" + request.vars.expiry_date_year'
p135
sI131
S''
sI132
S''
sI123
S''
sI124
S''
sI125
S''
sI126
S''
sI127
S''
ssg83
S'()'
p136
sg85
S'register'
p137
sa(dp138
g62
S'/usr/userfs/r/rs1019/iapt/web2py/gluon/html.py'
p139
sg64
(dp140
S'self'
p141
S'<gluon.html.FORM object>'
p142
sS'self.validate'
p143
S'<bound method FORM.validate of <gluon.html.FORM object>>'
p144
sS'kwargs'
p145
S"{'dbio': True, 'onvalidation': <function register_validation>}"
p146
ssg70
I2303
sg71
(dp147
I2304
S'        return self'
p148
sI2305
S''
sI2306
S'    REDIRECT_JS = "window.location=\'%s\';return false"'
p149
sI2307
S''
sI2298
S''
sI2299
S''
sI2300
S'        """'
p150
sI2301
S"        kwargs['dbio'] = kwargs.get('dbio', True)"
p151
sI2302
S'                                    # necessary for SQLHTML forms'
p152
sI2303
S'        self.validate(**kwargs)'
p153
ssg83
S"(self=<gluon.html.FORM object>, **kwargs={'dbio': True, 'onvalidation': <function register_validation>})"
p154
sg85
S'process'
p155
sa(dp156
g62
S'/usr/userfs/r/rs1019/iapt/web2py/gluon/html.py'
p157
sg64
(dp158
S'self'
p159
S'<gluon.html.FORM object>'
p160
sS'self.accepts'
p161
S'<bound method FORM.accepts of <gluon.html.FORM object>>'
p162
sS'kwargs'
p163
S"{'dbio': True, 'onvalidation': <function register_validation>, 'request_vars': <Storage {'username': 'Rory', 'confirm_password'..., 'billing_country': '', '_formname': 'default'}>, 'session': <Storage {'_formkey[default]': ['05e5e7ca-5ba6-4...a78c9', '0e93ea10-c191-4ce0-9d87-2b86e43e0db3']}>}"
p164
ssg70
I2240
sg71
(dp165
I2240
S'        if self.accepts(**kwargs):'
p166
sI2241
S"            if onsuccess == 'flash':"
p167
sI2242
S'                if next:'
p168
sI2243
S'                    current.session.flash = message_onsuccess'
p169
sI2244
S'                else:'
p170
sI2235
S"        for key in ('message_onsuccess', 'message_onfailure', 'onsuccess',"
p171
sI2236
S"                    'onfailure', 'next', 'message_onchange', 'onchange'):"
p172
sI2237
S'            if key in kwargs:'
p173
sI2238
S'                del kwargs[key]'
p174
sI2239
S''
ssg83
S"(self=<gluon.html.FORM object>, **kwargs={'dbio': True, 'onvalidation': <function register_validation>, 'request_vars': <Storage {'username': 'Rory', 'confirm_password'..., 'billing_country': '', '_formname': 'default'}>, 'session': <Storage {'_formkey[default]': ['05e5e7ca-5ba6-4...a78c9', '0e93ea10-c191-4ce0-9d87-2b86e43e0db3']}>})"
p175
sg85
S'validate'
p176
sa(dp177
g62
S'/usr/userfs/r/rs1019/iapt/web2py/gluon/html.py'
p178
sg64
(dp179
S'status'
p180
S'True'
p181
sS'self'
p182
S'<gluon.html.FORM object>'
p183
sS'self._traverse'
p184
S'<bound method FORM._traverse of <gluon.html.FORM object>>'
p185
sS'hideerror'
p186
S'False'
p187
ssg70
I2121
sg71
(dp188
I2116
S'        if status and session:'
p189
sI2117
S'            # check if editing a record that has been modified by the server'
p190
sI2118
S"            if hasattr(self, 'record_hash') and self.record_hash != formkey.split(':')[0]:"
p191
sI2119
S'                status = False'
p192
sI2120
S'                self.record_changed = changed = True'
p193
sI2121
S'        status = self._traverse(status, hideerror)'
p194
sI2122
S'        status = self.assert_status(status, request_vars)'
p195
sI2123
S'        if onvalidation:'
p196
sI2124
S'            if isinstance(onvalidation, dict):'
p197
sI2125
S"                onsuccess = onvalidation.get('onsuccess', None)"
p198
ssg83
S"(self=<gluon.html.FORM object>, request_vars=<Storage {'username': 'Rory', 'billing_postcode'...ity_code': '123', 'card_number': '123456789012'}>, session=<Storage {'_formkey[default]': ['05e5e7ca-5ba6-4...a78c9', '0e93ea10-c191-4ce0-9d87-2b86e43e0db3']}>, formname='default', keepvalues=False, onvalidation=<function register_validation>, hideerror=False, **kwargs={'dbio': True})"
p199
sg85
S'accepts'
p200
sa(dp201
g62
S'/usr/userfs/r/rs1019/iapt/web2py/gluon/html.py'
p202
sg64
(dp203
S'status'
p204
g181
sS'newstatus'
p205
g181
sS'c'
S'<gluon.html.FIELDSET object>'
p206
sS'hideerror'
p207
g187
sS'c._traverse'
p208
S'<bound method FIELDSET._traverse of <gluon.html.FIELDSET object>>'
p209
ssg70
I885
sg71
(dp210
I880
S'                c.latest = self.latest'
p211
sI881
S'                c.session = self.session'
p212
sI882
S'                c.formname = self.formname'
p213
sI883
S"                if not c.attributes.get('hideerror'):"
p214
sI884
S"                    c['hideerror'] = hideerror or self.attributes.get('hideerror')"
p215
sI885
S'                newstatus = c._traverse(status, hideerror) and newstatus'
p216
sI886
S''
sI887
S'        # for input, textarea, select, option'
p217
sI888
S"        # deal with 'value' and 'validation'"
p218
sI889
S''
ssg83
S'(self=<gluon.html.FORM object>, status=True, hideerror=False)'
p219
sg85
S'_traverse'
p220
sa(dp221
g62
S'/usr/userfs/r/rs1019/iapt/web2py/gluon/html.py'
p222
sg64
(dp223
S'status'
p224
g181
sS'newstatus'
p225
g181
sS'c'
S'<gluon.html.DIV object>'
p226
sS'hideerror'
p227
g187
sS'c._traverse'
p228
S'<bound method DIV._traverse of <gluon.html.DIV object>>'
p229
ssg70
I885
sg71
(dp230
I880
S'                c.latest = self.latest'
p231
sI881
S'                c.session = self.session'
p232
sI882
S'                c.formname = self.formname'
p233
sI883
S"                if not c.attributes.get('hideerror'):"
p234
sI884
S"                    c['hideerror'] = hideerror or self.attributes.get('hideerror')"
p235
sI885
S'                newstatus = c._traverse(status, hideerror) and newstatus'
p236
sI886
S''
sI887
S'        # for input, textarea, select, option'
p237
sI888
S"        # deal with 'value' and 'validation'"
p238
sI889
S''
ssg83
S'(self=<gluon.html.FIELDSET object>, status=True, hideerror=False)'
p239
sg85
g220
sa(dp240
g62
S'/usr/userfs/r/rs1019/iapt/web2py/gluon/html.py'
p241
sg64
(dp242
S'status'
p243
g181
sS'newstatus'
p244
g181
sS'c'
S'<gluon.html.INPUT object>'
p245
sS'hideerror'
p246
g187
sS'c._traverse'
p247
S'<bound method INPUT._traverse of <gluon.html.INPUT object>>'
p248
ssg70
I885
sg71
(dp249
I880
S'                c.latest = self.latest'
p250
sI881
S'                c.session = self.session'
p251
sI882
S'                c.formname = self.formname'
p252
sI883
S"                if not c.attributes.get('hideerror'):"
p253
sI884
S"                    c['hideerror'] = hideerror or self.attributes.get('hideerror')"
p254
sI885
S'                newstatus = c._traverse(status, hideerror) and newstatus'
p255
sI886
S''
sI887
S'        # for input, textarea, select, option'
p256
sI888
S"        # deal with 'value' and 'validation'"
p257
sI889
S''
ssg83
S'(self=<gluon.html.DIV object>, status=True, hideerror=False)'
p258
sg85
g220
sa(dp259
g62
S'/usr/userfs/r/rs1019/iapt/web2py/gluon/html.py'
p260
sg64
(dp261
S'newstatus'
p262
g181
sS'self'
p263
S'<gluon.html.INPUT object>'
p264
sS'self._validate'
p265
S'<bound method INPUT._validate of <gluon.html.INPUT object>>'
p266
ssg70
I892
sg71
(dp267
I896
S'            self._postprocessing()'
p268
sI887
S'        # for input, textarea, select, option'
p269
sI888
S"        # deal with 'value' and 'validation'"
p270
sI889
S''
sI890
S"        name = self['_name']"
p271
sI891
S'        if newstatus:'
p272
sI892
S'            newstatus = self._validate()'
p273
sI893
S'            self._postprocessing()'
p274
sI894
S"        elif 'old_value' in self.attributes:"
p275
sI895
S"            self['value'] = self['old_value']"
p276
ssg83
S'(self=<gluon.html.INPUT object>, status=True, hideerror=False)'
p277
sg85
g220
sa(dp278
g62
S'/usr/userfs/r/rs1019/iapt/web2py/gluon/html.py'
p279
sg64
(dp280
S'builtinException'
p281
S"<type 'exceptions.Exception'>"
p282
sS'msg'
p283
S"'Validation error, field:username <gluon.validators.IS_NOT_IN_DB object at 0x7f09300d5850>'"
p284
ssg70
I1860
sg71
(dp285
I1856
S'                try:'
p286
sI1857
S'                    (value, errors) = validator(value)'
p287
sI1858
S'                except:'
p288
sI1859
S'                    msg = "Validation error, field:%s %s" % (name,validator)'
p289
sI1860
S'                    raise Exception(msg)'
p290
sI1861
S'                if not errors is None:'
p291
sI1862
S'                    self.vars[name] = value'
p292
sI1863
S'                    self.errors[name] = errors'
p293
sI1864
S'                    break'
p294
sI1855
S'            for k,validator in enumerate(requires):'
p295
ssg83
S'(self=<gluon.html.INPUT object>)'
p296
sg85
S'_validate'
p297
sasS'pyver'
p298
S'Python 2.7.6: /usr/bin/python (prefix: /usr)'
p299
sS'session'
p300
g57
(S's\x1a\x00\x00\x00<div><table></table></div>'
tRp301
sS'etype'
p302
S"<type 'exceptions.Exception'>"
p303
sS'date'
p304
S'Mon Nov 24 20:17:43 2014'
p305
sS'response'
p306
g57
(S's\xa02\x00\x00<div><table><tr><td style="font-weight:bold;vertical-align:top;">body</td><td style="vertical-align:top;">:</td><td><div>&lt;cStringIO.StringO object at 0x7f0930c4a260&gt;</div></td></tr><tr><td style="font-weight:bold;vertical-align:top;">cookies</td><td style="vertical-align:top;">:</td><td><div><table><tr><td style="font-weight:bold;vertical-align:top;">session_id_bootup</td><td style="vertical-align:top;">:</td><td><div>127.0.0.1-2784d2b5-a3de-4957-8571-5e580bbdd450<table><tr><td style="font-weight:bold;vertical-align:top;">comment</td><td style="vertical-align:top;">:</td><td><div></div></td></tr><tr><td style="font-weight:bold;vertical-align:top;">domain</td><td style="vertical-align:top;">:</td><td><div></div></td></tr><tr><td style="font-weight:bold;vertical-align:top;">expires</td><td style="vertical-align:top;">:</td><td><div></div></td></tr><tr><td style="font-weight:bold;vertical-align:top;">httponly</td><td style="vertical-align:top;">:</td><td><div></div></td></tr><tr><td style="font-weight:bold;vertical-align:top;">max-age</td><td style="vertical-align:top;">:</td><td><div></div></td></tr><tr><td style="font-weight:bold;vertical-align:top;">path</td><td style="vertical-align:top;">:</td><td><div>/</div></td></tr><tr><td style="font-weight:bold;vertical-align:top;">secure</td><td style="vertical-align:top;">:</td><td><div></div></td></tr><tr><td style="font-weight:bold;vertical-align:top;">version</td><td style="vertical-align:top;">:</td><td><div></div></td></tr></table></div></td></tr></table></div></td></tr><tr><td style="font-weight:bold;vertical-align:top;">delimiters</td><td style="vertical-align:top;">:</td><td><div><table><tr><td><div>{{</div></td></tr><tr><td><div>}}</div></td></tr></table></div></td></tr><tr><td style="font-weight:bold;vertical-align:top;">files</td><td style="vertical-align:top;">:</td><td><div><table></table></div></td></tr><tr><td style="font-weight:bold;vertical-align:top;">flash</td><td style="vertical-align:top;">:</td><td><div></div></td></tr><tr><td style="font-weight:bold;vertical-align:top;">form_label_separator</td><td style="vertical-align:top;">:</td><td><div>: </div></td></tr><tr><td style="font-weight:bold;vertical-align:top;">formstyle</td><td style="vertical-align:top;">:</td><td><div>table3cols</div></td></tr><tr><td style="font-weight:bold;vertical-align:top;">generic_patterns</td><td style="vertical-align:top;">:</td><td><div><table><tr><td><div>*</div></td></tr></table></div></td></tr><tr><td style="font-weight:bold;vertical-align:top;">google_analytics_id</td><td style="vertical-align:top;">:</td><td><div>None</div></td></tr><tr><td style="font-weight:bold;vertical-align:top;">headers</td><td style="vertical-align:top;">:</td><td><div><table><tr><td style="font-weight:bold;vertical-align:top;">X-Powered-By</td><td style="vertical-align:top;">:</td><td><div>web2py</div></td></tr></table></div></td></tr><tr><td style="font-weight:bold;vertical-align:top;">logo</td><td style="vertical-align:top;">:</td><td><div><a class="brand" href="http://www.web2py.com/"><b>web<span>2</span>py</b>&trade;&nbsp;</a></div></td></tr><tr><td style="font-weight:bold;vertical-align:top;">menu</td><td style="vertical-align:top;">:</td><td><div><table><tr><td><div><table><tr><td><div>Home</div></td></tr><tr><td><div>False</div></td></tr><tr><td><div>/BootUp/default/index</div></td></tr><tr><td><div><table></table></div></td></tr></table></div></td></tr><tr><td><div><table><tr><td><div><span class="highlighted">web2py</span></div></td></tr><tr><td><div>False</div></td></tr><tr><td><div>http://web2py.com</div></td></tr><tr><td><div><table><tr><td><div><table><tr><td><div>My Sites</div></td></tr><tr><td><div>False</div></td></tr><tr><td><div>/admin/default/site</div></td></tr></table></div></td></tr><tr><td><div><table><tr><td><div>This App</div></td></tr><tr><td><div>False</div></td></tr><tr><td><div>/admin/default/design/BootUp</div></td></tr><tr><td><div>[(&lt;lazyT &#x27;Controller&#x27;&gt;, False, &#x27;/admin/default/edit/BootUp/controllers/default.py&#x27;), (&lt;lazyT &#x27;View&#x27;&gt;, False, &#x27;/admin/default/edit/BootUp/views/default/register.html&#x27;), (&lt;lazyT &#x27;Layout&#x27;&gt;, False, &#x27;/admin/default/edit/BootUp/views/layout.html&#x27;), (&lt;lazyT &#x27;Stylesheet&#x27;&gt;, False, &#x27;/admin/default/edit/BootUp/static/css/web2py.css&#x27;), (&lt;lazyT &#x27;DB Model&#x27;&gt;, False, &#x27;/admin/default/edit/BootUp/models/db.py&#x27;), (&lt;lazyT &#x27;Menu Model&#x27;&gt;, False, &#x27;/admin/default/edit/BootUp/models/menu.py&#x27;), (&lt;lazyT &#x27;Database&#x27;&gt;, False, &#x27;/BootUp/appadmin/index&#x27;), (&lt;lazyT &#x27;Errors&#x27;&gt;, False, &#x27;/admin/default/errors/BootUp&#x27;), (&lt;lazyT &#x27;About&#x27;&gt;, False, &#x27;/admin/default/about/BootUp&#x27;)]</div></td></tr></table></div></td></tr><tr><td><div><table><tr><td><div>web2py.com</div></td></tr><tr><td><div>False</div></td></tr><tr><td><div>http://www.web2py.com</div></td></tr><tr><td><div>[(&lt;lazyT &#x27;Download&#x27;&gt;, False, &#x27;http://www.web2py.com/examples/default/download&#x27;), (&lt;lazyT &#x27;Support&#x27;&gt;, False, &#x27;http://www.web2py.com/examples/default/support&#x27;), (&lt;lazyT &#x27;Demo&#x27;&gt;, False, &#x27;http://web2py.com/demo_admin&#x27;), (&lt;lazyT &#x27;Quick Examples&#x27;&gt;, False, &#x27;http://web2py.com/examples/default/examples&#x27;), (&lt;lazyT &#x27;FAQ&#x27;&gt;, False, &#x27;http://web2py.com/AlterEgo&#x27;), (&lt;lazyT &#x27;Videos&#x27;&gt;, False, &#x27;http://www.web2py.com/examples/default/videos/&#x27;), (&lt;lazyT &#x27;Free Applications&#x27;&gt;, False, &#x27;http://web2py.com/appliances&#x27;), (&lt;lazyT &#x27;Plugins&#x27;&gt;, False, &#x27;http://web2py.com/plugins&#x27;), (&lt;lazyT &#x27;Layouts&#x27;&gt;, False, &#x27;http://web2py.com/layouts&#x27;), (&lt;lazyT &#x27;Recipes&#x27;&gt;, False, &#x27;http://web2pyslices.com/&#x27;), (&lt;lazyT &#x27;Semantic&#x27;&gt;, False, &#x27;http://web2py.com/semantic&#x27;)]</div></td></tr></table></div></td></tr><tr><td><div><table><tr><td><div>Documentation</div></td></tr><tr><td><div>False</div></td></tr><tr><td><div>http://www.web2py.com/book</div></td></tr><tr><td><div>[(&lt;lazyT &#x27;Preface&#x27;&gt;, False, &#x27;http://www.web2py.com/book/default/chapter/00&#x27;), (&lt;lazyT &#x27;Introduction&#x27;&gt;, False, &#x27;http://www.web2py.com/book/default/chapter/01&#x27;), (&lt;lazyT &#x27;Python&#x27;&gt;, False, &#x27;http://www.web2py.com/book/default/chapter/02&#x27;), (&lt;lazyT &#x27;Overview&#x27;&gt;, False, &#x27;http://www.web2py.com/book/default/chapter/03&#x27;), (&lt;lazyT &#x27;The Core&#x27;&gt;, False, &#x27;http://www.web2py.com/book/default/chapter/04&#x27;), (&lt;lazyT &#x27;The Views&#x27;&gt;, False, &#x27;http://www.web2py.com/book/default/chapter/05&#x27;), (&lt;lazyT &#x27;Database&#x27;&gt;, False, &#x27;http://www.web2py.com/book/default/chapter/06&#x27;), (&lt;lazyT &#x27;Forms and Validators&#x27;&gt;, False, &#x27;http://www.web2py.com/book/default/chapter/07&#x27;), (&lt;lazyT &#x27;Email and SMS&#x27;&gt;, False, &#x27;http://www.web2py.com/book/default/chapter/08&#x27;), (&lt;lazyT &#x27;Access Control&#x27;&gt;, False, &#x27;http://www.web2py.com/book/default/chapter/09&#x27;), (&lt;lazyT &#x27;Services&#x27;&gt;, False, &#x27;http://www.web2py.com/book/default/chapter/10&#x27;), (&lt;lazyT &#x27;Ajax Recipes&#x27;&gt;, False, &#x27;http://www.web2py.com/book/default/chapter/11&#x27;), (&lt;lazyT &#x27;Components and Plugins&#x27;&gt;, False, &#x27;http://www.web2py.com/book/default/chapter/12&#x27;), (&lt;lazyT &#x27;Deployment Recipes&#x27;&gt;, False, &#x27;http://www.web2py.com/book/default/chapter/13&#x27;), (&lt;lazyT &#x27;Other Recipes&#x27;&gt;, False, &#x27;http://www.web2py.com/book/default/chapter/14&#x27;), (&lt;lazyT &#x27;Buy this book&#x27;&gt;, False, &#x27;http://stores.lulu.com/web2py&#x27;)]</div></td></tr></table></div></td></tr><tr><td><div><table><tr><td><div>Community</div></td></tr><tr><td><div>False</div></td></tr><tr><td><div>None</div></td></tr><tr><td><div>[(&lt;lazyT &#x27;Groups&#x27;&gt;, False, &#x27;http://www.web2py.com/examples/default/usergroups&#x27;), (&lt;lazyT &#x27;Twitter&#x27;&gt;, False, &#x27;http://twitter.com/web2py&#x27;), (&lt;lazyT &#x27;Live Chat&#x27;&gt;, False, &#x27;http://webchat.freenode.net/?channels=web2py&#x27;)]</div></td></tr></table></div></td></tr><tr><td><div><table><tr><td><div>Plugins</div></td></tr><tr><td><div>False</div></td></tr><tr><td><div>None</div></td></tr><tr><td><div>[(&#x27;plugin_wiki&#x27;, False, &#x27;http://web2py.com/examples/default/download&#x27;), (&lt;lazyT &#x27;Other Plugins&#x27;&gt;, False, &#x27;http://web2py.com/plugins&#x27;), (&lt;lazyT &#x27;Layout Plugins&#x27;&gt;, False, &#x27;http://web2py.com/layouts&#x27;)]</div></td></tr></table></div></td></tr></table></div></td></tr></table></div></td></tr></table></div></td></tr><tr><td style="font-weight:bold;vertical-align:top;">meta</td><td style="vertical-align:top;">:</td><td><div><table><tr><td style="font-weight:bold;vertical-align:top;">author</td><td style="vertical-align:top;">:</td><td><div>Your Name &lt;you@example.com&gt;</div></td></tr><tr><td style="font-weight:bold;vertical-align:top;">generator</td><td style="vertical-align:top;">:</td><td><div>Web2py Web Framework</div></td></tr><tr><td style="font-weight:bold;vertical-align:top;">keywords</td><td style="vertical-align:top;">:</td><td><div>web2py, python, framework</div></td></tr></table></div></td></tr><tr><td style="font-weight:bold;vertical-align:top;">models_to_run</td><td style="vertical-align:top;">:</td><td><div><table><tr><td><div>^\\w+\\.py$</div></td></tr><tr><td><div>^default/\\w+\\.py$</div></td></tr><tr><td><div>^default/register/\\w+\\.py$</div></td></tr></table></div></td></tr><tr><td style="font-weight:bold;vertical-align:top;">postprocessing</td><td style="vertical-align:top;">:</td><td><div><table></table></div></td></tr><tr><td style="font-weight:bold;vertical-align:top;">session_client</td><td style="vertical-align:top;">:</td><td><div>127.0.0.1</div></td></tr><tr><td style="font-weight:bold;vertical-align:top;">session_cookie_compression_level</td><td style="vertical-align:top;">:</td><td><div>None</div></td></tr><tr><td style="font-weight:bold;vertical-align:top;">session_cookie_expires</td><td style="vertical-align:top;">:</td><td><div>None</div></td></tr><tr><td style="font-weight:bold;vertical-align:top;">session_cookie_key</td><td style="vertical-align:top;">:</td><td><div>None</div></td></tr><tr><td style="font-weight:bold;vertical-align:top;">session_data_name</td><td style="vertical-align:top;">:</td><td><div>session_data_bootup</div></td></tr><tr><td style="font-weight:bold;vertical-align:top;">session_file</td><td style="vertical-align:top;">:</td><td><div>&lt;open file &#x27;/usr/userfs/r/rs1019/iapt/web2py/applications/BootUp/sessions/063/0bd/127.0.0.1-2784d2b5-a3de-4957-8571-5e580bbdd450&#x27;, mode &#x27;rb+&#x27; at 0x7f0930c7f5d0&gt;</div></td></tr><tr><td style="font-weight:bold;vertical-align:top;">session_filename</td><td style="vertical-align:top;">:</td><td><div>/usr/userfs/r/rs1019/iapt/web2py/applications/BootUp/sessions/127.0.0.1-2784d2b5-a3de-4957-8571-5e580bbdd450</div></td></tr><tr><td style="font-weight:bold;vertical-align:top;">session_hash</td><td style="vertical-align:top;">:</td><td><div>8e0574dbd3b42ee5936b845ae4f6bec3</div></td></tr><tr><td style="font-weight:bold;vertical-align:top;">session_id</td><td style="vertical-align:top;">:</td><td><div>127.0.0.1-2784d2b5-a3de-4957-8571-5e580bbdd450</div></td></tr><tr><td style="font-weight:bold;vertical-align:top;">session_id_name</td><td style="vertical-align:top;">:</td><td><div>session_id_bootup</div></td></tr><tr><td style="font-weight:bold;vertical-align:top;">session_locked</td><td style="vertical-align:top;">:</td><td><div>True</div></td></tr><tr><td style="font-weight:bold;vertical-align:top;">session_masterapp</td><td style="vertical-align:top;">:</td><td><div>BootUp</div></td></tr><tr><td style="font-weight:bold;vertical-align:top;">session_new</td><td style="vertical-align:top;">:</td><td><div>False</div></td></tr><tr><td style="font-weight:bold;vertical-align:top;">session_storage_type</td><td style="vertical-align:top;">:</td><td><div>file</div></td></tr><tr><td style="font-weight:bold;vertical-align:top;">status</td><td style="vertical-align:top;">:</td><td><div>200</div></td></tr><tr><td style="font-weight:bold;vertical-align:top;">subtitle</td><td style="vertical-align:top;">:</td><td><div></div></td></tr><tr><td style="font-weight:bold;vertical-align:top;">title</td><td style="vertical-align:top;">:</td><td><div>Bootup</div></td></tr><tr><td style="font-weight:bold;vertical-align:top;">view</td><td style="vertical-align:top;">:</td><td><div>default/register.html</div></td></tr></table></div>'
tRp307
sS'locals'
p308
(dp309
S'errors'
p310
S'None'
p311
sS'name'
p312
S"'username'"
p313
sS'k'
S'1'
sS'value'
p314
S"'Rory'"
p315
sS'validator'
p316
S'<gluon.validators.IS_NOT_IN_DB object>'
p317
sS'msg'
p318
S"'Validation error, field:username <gluon.validators.IS_NOT_IN_DB object at 0x7f09300d5850>'"
p319
sS'request_vars_get'
p320
S'<built-in method get of Storage object>'
p321
sS'requires'
p322
S'[<gluon.validators.IS_NOT_EMPTY object>, <gluon.validators.IS_NOT_IN_DB object>]'
p323
sS'self'
p324
S'<gluon.html.INPUT object>'
p325
sssS'traceback'
p326
S'Traceback (most recent call last):\n  File "/usr/userfs/r/rs1019/iapt/web2py/gluon/restricted.py", line 224, in restricted\n    exec ccode in environment\n  File "/usr/userfs/r/rs1019/iapt/web2py/applications/BootUp/controllers/default.py", line 255, in <module>\n  File "/usr/userfs/r/rs1019/iapt/web2py/gluon/globals.py", line 392, in <lambda>\n    self._caller = lambda f: f()\n  File "/usr/userfs/r/rs1019/iapt/web2py/applications/BootUp/controllers/default.py", line 128, in register\n    if form.process(onvalidation=register_validation).accepted:\n  File "/usr/userfs/r/rs1019/iapt/web2py/gluon/html.py", line 2303, in process\n    self.validate(**kwargs)\n  File "/usr/userfs/r/rs1019/iapt/web2py/gluon/html.py", line 2240, in validate\n    if self.accepts(**kwargs):\n  File "/usr/userfs/r/rs1019/iapt/web2py/gluon/html.py", line 2121, in accepts\n    status = self._traverse(status, hideerror)\n  File "/usr/userfs/r/rs1019/iapt/web2py/gluon/html.py", line 885, in _traverse\n    newstatus = c._traverse(status, hideerror) and newstatus\n  File "/usr/userfs/r/rs1019/iapt/web2py/gluon/html.py", line 885, in _traverse\n    newstatus = c._traverse(status, hideerror) and newstatus\n  File "/usr/userfs/r/rs1019/iapt/web2py/gluon/html.py", line 885, in _traverse\n    newstatus = c._traverse(status, hideerror) and newstatus\n  File "/usr/userfs/r/rs1019/iapt/web2py/gluon/html.py", line 892, in _traverse\n    newstatus = self._validate()\n  File "/usr/userfs/r/rs1019/iapt/web2py/gluon/html.py", line 1860, in _validate\n    raise Exception(msg)\nException: Validation error, field:username <gluon.validators.IS_NOT_IN_DB object at 0x7f09300d5850>\n'
p327
s.