(dp1
S'output'
p2
S"<type 'exceptions.AttributeError'> 'Rows' object has no attribute 'first_name'"
p3
sS'layer'
p4
S'C:\\Web2Py\\web2py_win\\web2py\\applications\\BootUp\\views\\profile/profile.html'
p5
sS'code'
p6
S'response.write(\'<!DOCTYPE html>\\r\\n<head>\\r\\n\\t<title>BootUp</title>\\r\\n\\t<meta charset=\\\'utf-8\\\' />\\r\\n    <link rel=\\\'stylesheet\\\' type=\\\'text/css\\\' href="\', escape=False)\nresponse.write(URL(\'static\',\'css/bootupStyle.css\'))\nresponse.write(\' " media="screen" />\\r\\n    <link rel=\\\'stylesheet\\\' type=\\\'text/css\\\' href="\', escape=False)\nresponse.write(URL(\'static\',\'css/bootstrap.min.css\'))\nresponse.write(\' " media="screen" />\\r\\n    <link rel=\\\'stylesheet\\\' type=\\\'text/css\\\' href="\', escape=False)\nresponse.write(URL(\'static\',\'css/bootstrap-responsive.min.css\'))\nresponse.write(\' " media="screen" />\\r\\n    <link rel=\\\'stylesheet\\\' type=\\\'text/css\\\' href="\', escape=False)\nresponse.write(URL(\'static\',\'css/web2py_bootstrap.css\'))\nresponse.write(\' " media="screen" />\\r\\n    <link href=\\\'http://fonts.googleapis.com/css?family=Montserrat\\\' rel=\\\'stylesheet\\\' type=\\\'text/css\\\'>\\r\\n    <link href=\\\'http://fonts.googleapis.com/css?family=Josefin+Sans\\\' rel=\\\'stylesheet\\\' type=\\\'text/css\\\'>\\r\\n    <script src="\', escape=False)\nresponse.write(URL(\'static\',\'js/modernizr.custom.js\'))\nresponse.write(\'"></script>\\r\\n    <script type="text/javascript" src="\', escape=False)\nresponse.write(URL(\'static\',\'js/jquery.js\'))\nresponse.write(\'"></script>\\r\\n    <script type="text/javascript" src="\', escape=False)\nresponse.write(URL(\'static\',\'js/bootstrap.min.js\'))\nresponse.write(\'"></script>\\r\\n    <script type="text/javascript" src="\', escape=False)\nresponse.write(URL(\'static\',\'js/registration.js\'))\nresponse.write(\'"></script>\\r\\n   <!-- <script type="text/javascript" src="\', escape=False)\nresponse.write(URL(\'static\',\'js/web2py.js\'))\nresponse.write(\'"></script> -->\\r\\n</head>\\r\\n<body>\\r\\n\\r\\n    <div class="container main">\\r\\n        <div class="row">\\r\\n            <div class="navbar navbar-fixed-top navbar-inverse">\\r\\n                <div class="navbar-inner">\\r\\n                    <div class="container">\\r\\n                         <a class="btn btn-navbar" data-toggle="collapse" data-target=".nav-collapse">\\r\\n                                <span class="icon-bar"></span>\\r\\n                                <span class="icon-bar"></span>\\r\\n                                <span class="icon-bar"></span>\\r\\n                         </a>\\r\\n                        <a href="\', escape=False)\nresponse.write(URL(\'default\',\'index\'))\nresponse.write(\'" class="brand"> BootUp </a>\\r\\n\\r\\n                        <div class="nav-collapse collapse">\\r\\n\\r\\n                             <ul class="nav">\\r\\n                                <li class="divider-vertical"></li>\\r\\n                                <li> <a href="\', escape=False)\nresponse.write(URL(\'store\',\'categories\'))\nresponse.write(\' "> Explore Projects </a> </li>\\r\\n                                <li class="divider-vertical"></li>\\r\\n                                <li>  <form class="navbar-search ">\\r\\n                                        <input type="text" class="span4 search-query" placeholder="Search">\\r\\n                                      </form>\\r\\n\\r\\n                                </li>\\r\\n\\r\\n\\r\\n                            </ul>\\r\\n\\r\\n                            <ul class="nav pull-right ">\\r\\n\\r\\n                                \', escape=False)\nif (auth.is_logged_in()):\n    response.write(\'\\r\\n                                <li class="divider-vertical"></li>\\r\\n                                <li> <a href="\', escape=False)\n    response.write(URL(\'default\',\'create\'))\n    response.write(\' "> Create</a></li>\\r\\n                                <li class="divider-vertical"></li>\\r\\n                                <li> <a href="\', escape=False)\n    response.write(URL(\'profile\',\'profile\'))\n    response.write(\' "> Profile</a></li>\\r\\n                                <li class="divider-vertical"></li>\\r\\n                                <li> <a href="\', escape=False)\n    response.write(URL(\'default\',\'user/logout\'))\n    response.write(\' "> Logout</a></li>\\r\\n\\r\\n\\r\\n                                \', escape=False)\nelse:\n    response.write(\'\\r\\n                                <li class="divider-vertical"></li>\\r\\n                                <li> <a href="\', escape=False)\n    response.write(URL(\'default\',\'login\'))\n    response.write(\' "> Login</a></li>\\r\\n                                <li class="divider-vertical"></li>\\r\\n                                <li> <a href="\', escape=False)\n    response.write(URL(\'default\',\'register\'))\n    response.write(\' "> Register</a></li>\\r\\n\\r\\n\\r\\n                                \', escape=False)\n    pass\nresponse.write(\'\\r\\n\\r\\n                            </ul>\\r\\n\\r\\n                        </div>\\r\\n\\r\\n\\r\\n                    </div>\\r\\n                </div>\\r\\n            </div>\\r\\n        </div>\\r\\n\\r\\n        <div class="after-nav">\\r\\n\\r\\n\\r\\n\\r\\n        \', escape=False)\nresponse.write(\'\\r\\n\\r\\n<div class="pad-breadcrumbs-away-from-nav">\\r\\n    <ul class="breadcrumb ">\\r\\n      <li><a href="\', escape=False)\nresponse.write(URL(\'default\',\'index.html\'))\nresponse.write(\' ">Home</a> <span class="divider">/</span></li>\\r\\n      <li class="active">Profile</li>\\r\\n    </ul>\\r\\n</div>\\r\\n\\r\\n        \', escape=False)\nresponse.write(\'\\r\\n\\r\\n\\r\\n<div class="page-header">\\r\\n    <h1>\', escape=False)\nuser.first_name + " " + user.last_name\nresponse.write(\' <small>0 Pledges and 0 Projects</small></h1>\\r\\n</div>\\r\\n\\r\\n\\r\\n<ul class="nav nav-tabs nav-stacked">\\r\\n    <li><a href="#"> <h1>Your Projects </h1></a> </li>\\r\\n    <li><a href="#"><h1>Your Pledges </h1></a></li>\\r\\n    <li><a href="#"><h1>Your Information </h1></a></li>\\r\\n</ul>\\r\\n\\r\\n<div class="hero-unit">\\r\\n  <h1>Fancy Starting Something Special?</h1>\\r\\n  <p>Start your own project to finally fulfil your dreams</p>\\r\\n  <p>\\r\\n    <a class="btn btn-primary btn-large">\\r\\n      Create a Project\\r\\n    </a>\\r\\n  </p>\\r\\n</div>\\r\\n\\r\\n\\r\\n\\r\\n\\r\\n\\r\\n\\r\\n\', escape=False)\nresponse.write(\'\\r\\n        \', escape=False)\npass\nresponse.write(\'\\r\\n        \', escape=False)\npass\nresponse.write(\'\\r\\n\\r\\n        </div>\\r\\n\\r\\n    </div>\\r\\n\\r\\n\\r\\n</body>\\r\\n\\r\\n</html>\', escape=False)'
p7
sS'snapshot'
p8
(dp9
S'exception'
p10
(dp11
S'__hash__'
p12
S"<method-wrapper '__hash__' of exceptions.AttributeError object>"
p13
sS'__setattr__'
p14
S"<method-wrapper '__setattr__' of exceptions.AttributeError object>"
p15
sS'__reduce_ex__'
p16
S'<built-in method __reduce_ex__ of exceptions.AttributeError object>'
p17
sS'__getslice__'
p18
S"<method-wrapper '__getslice__' of exceptions.AttributeError object>"
p19
sS'__getitem__'
p20
S"<method-wrapper '__getitem__' of exceptions.AttributeError object>"
p21
sS'__setstate__'
p22
S'<built-in method __setstate__ of exceptions.AttributeError object>'
p23
sS'__reduce__'
p24
S'<built-in method __reduce__ of exceptions.AttributeError object>'
p25
sS'__str__'
p26
S"<method-wrapper '__str__' of exceptions.AttributeError object>"
p27
sS'__format__'
p28
S'<built-in method __format__ of exceptions.AttributeError object>'
p29
sS'__getattribute__'
p30
S"<method-wrapper '__getattribute__' of exceptions.AttributeError object>"
p31
sS'__class__'
p32
S"<type 'exceptions.AttributeError'>"
p33
sS'__unicode__'
p34
S'<built-in method __unicode__ of exceptions.AttributeError object>'
p35
sS'__delattr__'
p36
S"<method-wrapper '__delattr__' of exceptions.AttributeError object>"
p37
sS'__subclasshook__'
p38
S'<built-in method __subclasshook__ of type object>'
p39
sS'__repr__'
p40
S"<method-wrapper '__repr__' of exceptions.AttributeError object>"
p41
sS'args'
p42
S'("\'Rows\' object has no attribute \'first_name\'",)'
p43
sS'__dict__'
p44
S'{}'
p45
sS'__sizeof__'
p46
S'<built-in method __sizeof__ of exceptions.AttributeError object>'
p47
sS'__doc__'
p48
S"'Attribute not found.'"
p49
sS'__init__'
p50
S"<method-wrapper '__init__' of exceptions.AttributeError object>"
p51
sS'__new__'
p52
S'<built-in method __new__ of type object>'
p53
ssS'evalue'
p54
S"'Rows' object has no attribute 'first_name'"
p55
sS'request'
p56
cgluon.html
XML_unpickle
p57
(S's3]\x00\x00<div><table><tr><td style="font-weight:bold;vertical-align:top;">ajax</td><td style="vertical-align:top;">:</td><td><div>False</div></td></tr><tr><td style="font-weight:bold;vertical-align:top;">application</td><td style="vertical-align:top;">:</td><td><div>BootUp</div></td></tr><tr><td style="font-weight:bold;vertical-align:top;">args</td><td style="vertical-align:top;">:</td><td><div><table></table></div></td></tr><tr><td style="font-weight:bold;vertical-align:top;">cid</td><td style="vertical-align:top;">:</td><td><div>None</div></td></tr><tr><td style="font-weight:bold;vertical-align:top;">client</td><td style="vertical-align:top;">:</td><td><div>127.0.0.1</div></td></tr><tr><td style="font-weight:bold;vertical-align:top;">controller</td><td style="vertical-align:top;">:</td><td><div>profile</div></td></tr><tr><td style="font-weight:bold;vertical-align:top;">cookies</td><td style="vertical-align:top;">:</td><td><div><table><tr><td style="font-weight:bold;vertical-align:top;">session_id_admin</td><td style="vertical-align:top;">:</td><td><div>127.0.0.1-2e4b5e37-2da1-4ce5-98ff-77eed537c386<table><tr><td style="font-weight:bold;vertical-align:top;">comment</td><td style="vertical-align:top;">:</td><td><div></div></td></tr><tr><td style="font-weight:bold;vertical-align:top;">domain</td><td style="vertical-align:top;">:</td><td><div></div></td></tr><tr><td style="font-weight:bold;vertical-align:top;">expires</td><td style="vertical-align:top;">:</td><td><div></div></td></tr><tr><td style="font-weight:bold;vertical-align:top;">httponly</td><td style="vertical-align:top;">:</td><td><div></div></td></tr><tr><td style="font-weight:bold;vertical-align:top;">max-age</td><td style="vertical-align:top;">:</td><td><div></div></td></tr><tr><td style="font-weight:bold;vertical-align:top;">path</td><td style="vertical-align:top;">:</td><td><div></div></td></tr><tr><td style="font-weight:bold;vertical-align:top;">secure</td><td style="vertical-align:top;">:</td><td><div></div></td></tr><tr><td style="font-weight:bold;vertical-align:top;">version</td><td style="vertical-align:top;">:</td><td><div></div></td></tr></table></div></td></tr><tr><td style="font-weight:bold;vertical-align:top;">session_id_bootup</td><td style="vertical-align:top;">:</td><td><div>127.0.0.1-09d79149-d486-4849-94fd-90353d097c20<table><tr><td style="font-weight:bold;vertical-align:top;">comment</td><td style="vertical-align:top;">:</td><td><div></div></td></tr><tr><td style="font-weight:bold;vertical-align:top;">domain</td><td style="vertical-align:top;">:</td><td><div></div></td></tr><tr><td style="font-weight:bold;vertical-align:top;">expires</td><td style="vertical-align:top;">:</td><td><div></div></td></tr><tr><td style="font-weight:bold;vertical-align:top;">httponly</td><td style="vertical-align:top;">:</td><td><div></div></td></tr><tr><td style="font-weight:bold;vertical-align:top;">max-age</td><td style="vertical-align:top;">:</td><td><div></div></td></tr><tr><td style="font-weight:bold;vertical-align:top;">path</td><td style="vertical-align:top;">:</td><td><div></div></td></tr><tr><td style="font-weight:bold;vertical-align:top;">secure</td><td style="vertical-align:top;">:</td><td><div></div></td></tr><tr><td style="font-weight:bold;vertical-align:top;">version</td><td style="vertical-align:top;">:</td><td><div></div></td></tr></table></div></td></tr><tr><td style="font-weight:bold;vertical-align:top;">session_id_welcome</td><td style="vertical-align:top;">:</td><td><div>127.0.0.1-30852f1f-dbd3-4033-a19b-39174c48f8c3<table><tr><td style="font-weight:bold;vertical-align:top;">comment</td><td style="vertical-align:top;">:</td><td><div></div></td></tr><tr><td style="font-weight:bold;vertical-align:top;">domain</td><td style="vertical-align:top;">:</td><td><div></div></td></tr><tr><td style="font-weight:bold;vertical-align:top;">expires</td><td style="vertical-align:top;">:</td><td><div></div></td></tr><tr><td style="font-weight:bold;vertical-align:top;">httponly</td><td style="vertical-align:top;">:</td><td><div></div></td></tr><tr><td style="font-weight:bold;vertical-align:top;">max-age</td><td style="vertical-align:top;">:</td><td><div></div></td></tr><tr><td style="font-weight:bold;vertical-align:top;">path</td><td style="vertical-align:top;">:</td><td><div></div></td></tr><tr><td style="font-weight:bold;vertical-align:top;">secure</td><td style="vertical-align:top;">:</td><td><div></div></td></tr><tr><td style="font-weight:bold;vertical-align:top;">version</td><td style="vertical-align:top;">:</td><td><div></div></td></tr></table></div></td></tr></table></div></td></tr><tr><td style="font-weight:bold;vertical-align:top;">env</td><td style="vertical-align:top;">:</td><td><div><table><tr><td style="font-weight:bold;vertical-align:top;">HTTP_ACCEPT</td><td style="vertical-align:top;">:</td><td><div>text/html,application/xhtml+xml,application/xml;q=0.9,image/webp,*/*;q=0.8</div></td></tr><tr><td style="font-weight:bold;vertical-align:top;">HTTP_ACCEPT_ENCODING</td><td style="vertical-align:top;">:</td><td><div>gzip,deflate,sdch</div></td></tr><tr><td style="font-weight:bold;vertical-align:top;">HTTP_ACCEPT_LANGUAGE</td><td style="vertical-align:top;">:</td><td><div>en-GB,en-US;q=0.8,en;q=0.6</div></td></tr><tr><td style="font-weight:bold;vertical-align:top;">HTTP_CONNECTION</td><td style="vertical-align:top;">:</td><td><div>keep-alive</div></td></tr><tr><td style="font-weight:bold;vertical-align:top;">HTTP_COOKIE</td><td style="vertical-align:top;">:</td><td><div>session_id_welcome=127.0.0.1-30852f1f-dbd3-4033-a19b-39174c48f8c3; session_id_admin=127.0.0.1-2e4b5e37-2da1-4ce5-98ff-77eed537c386; session_id_bootup=127.0.0.1-09d79149-d486-4849-94fd-90353d097c20</div></td></tr><tr><td style="font-weight:bold;vertical-align:top;">HTTP_HOST</td><td style="vertical-align:top;">:</td><td><div>127.0.0.1:8000</div></td></tr><tr><td style="font-weight:bold;vertical-align:top;">HTTP_REFERER</td><td style="vertical-align:top;">:</td><td><div>http://127.0.0.1:8000/BootUp/default/index</div></td></tr><tr><td style="font-weight:bold;vertical-align:top;">HTTP_USER_AGENT</td><td style="vertical-align:top;">:</td><td><div>Mozilla/5.0 (Windows NT 6.3; WOW64) AppleWebKit/537.36 (KHTML, like Gecko) Chrome/38.0.2125.111 Safari/537.36</div></td></tr><tr><td style="font-weight:bold;vertical-align:top;">PATH_INFO</td><td style="vertical-align:top;">:</td><td><div>/BootUp/profile/profile</div></td></tr><tr><td style="font-weight:bold;vertical-align:top;">QUERY_STRING</td><td style="vertical-align:top;">:</td><td><div></div></td></tr><tr><td style="font-weight:bold;vertical-align:top;">REMOTE_ADDR</td><td style="vertical-align:top;">:</td><td><div>127.0.0.1</div></td></tr><tr><td style="font-weight:bold;vertical-align:top;">REMOTE_PORT</td><td style="vertical-align:top;">:</td><td><div>4057</div></td></tr><tr><td style="font-weight:bold;vertical-align:top;">REQUEST_METHOD</td><td style="vertical-align:top;">:</td><td><div>GET</div></td></tr><tr><td style="font-weight:bold;vertical-align:top;">SCRIPT_NAME</td><td style="vertical-align:top;">:</td><td><div></div></td></tr><tr><td style="font-weight:bold;vertical-align:top;">SERVER_NAME</td><td style="vertical-align:top;">:</td><td><div>RorysPC</div></td></tr><tr><td style="font-weight:bold;vertical-align:top;">SERVER_PORT</td><td style="vertical-align:top;">:</td><td><div>8000</div></td></tr><tr><td style="font-weight:bold;vertical-align:top;">SERVER_PROTOCOL</td><td style="vertical-align:top;">:</td><td><div>HTTP/1.1</div></td></tr><tr><td style="font-weight:bold;vertical-align:top;">SERVER_SOFTWARE</td><td style="vertical-align:top;">:</td><td><div>Rocket 1.2.6</div></td></tr><tr><td style="font-weight:bold;vertical-align:top;">app_folders</td><td style="vertical-align:top;">:</td><td><div>set([&#x27;C:\\\\Web2Py\\\\web2py_win\\\\web2py\\\\applications\\\\welcome\\\\&#x27;, &#x27;C:\\\\Web2Py\\\\web2py_win\\\\web2py\\\\applications\\\\admin\\\\&#x27;, &#x27;C:\\\\Web2Py\\\\web2py_win\\\\web2py\\\\applications\\\\BootUp\\\\&#x27;])</div></td></tr><tr><td style="font-weight:bold;vertical-align:top;">applications_parent</td><td style="vertical-align:top;">:</td><td><div>C:\\Web2Py\\web2py_win\\web2py</div></td></tr><tr><td style="font-weight:bold;vertical-align:top;">cmd_args</td><td style="vertical-align:top;">:</td><td><div><table></table></div></td></tr><tr><td style="font-weight:bold;vertical-align:top;">cmd_options</td><td style="vertical-align:top;">:</td><td><div>&lt;Values at 0x2f0a288: {&#x27;verbose&#x27;: False, &#x27;ip&#x27;: &#x27;127.0.0.1&#x27;, &#x27;debuglevel&#x27;: 30, &#x27;with_scheduler&#x27;: False, &#x27;ips&#x27;: [&#x27;192.168.0.5&#x27;], &#x27;shutdown_timeout&#x27;: 5, &#x27;taskbar&#x27;: False, &#x27;with_coverage&#x27;: False, &#x27;scheduler_groups&#x27;: None, &#x27;port&#x27;: 8000, &#x27;maxthreads&#x27;: None, &#x27;softcron&#x27;: False, &#x27;server_name&#x27;: &#x27;RorysPC&#x27;, &#x27;bpython&#x27;: False, &#x27;nogui&#x27;: False, &#x27;pid_filename&#x27;: &#x27;httpserver.pid&#x27;, &#x27;extcron&#x27;: False, &#x27;runcron&#x27;: False, &#x27;run_system_tests&#x27;: False, &#x27;test&#x27;: None, &#x27;folder&#x27;: &#x27;C:\\\\Web2Py\\\\web2py_win\\\\web2py&#x27;, &#x27;config&#x27;: &#x27;&#x27;, &#x27;minthreads&#x27;: None, &#x27;shell&#x27;: None, &#x27;run&#x27;: &#x27;&#x27;, &#x27;log_filename&#x27;: &#x27;httpserver.log&#x27;, &#x27;profiler_dir&#x27;: None, &#x27;args&#x27;: [&#x27;&#x27;], &#x27;socket_timeout&#x27;: 5, &#x27;ssl_ca_certificate&#x27;: None, &#x27;scheduler&#x27;: None, &#x27;interfaces&#x27;: None, &#x27;ssl_private_key&#x27;: &#x27;&#x27;, &#x27;gae&#x27;: None, &#x27;password&#x27;: &#x27;&lt;ask&gt;&#x27;, &#x27;request_queue_size&#x27;: 5, &#x27;ssl_certificate&#x27;: &#x27;&#x27;, &#x27;cronjob&#x27;: False, &#x27;numthreads&#x27;: None, &#x27;quiet&#x27;: False, &#x27;import_models&#x27;: False, &#x27;timeout&#x27;: 10, &#x27;plain&#x27;: False, &#x27;nobanner&#x27;: False}&gt;</div></td></tr><tr><td style="font-weight:bold;vertical-align:top;">db_sessions</td><td style="vertical-align:top;">:</td><td><div>set([])</div></td></tr><tr><td style="font-weight:bold;vertical-align:top;">debugging</td><td style="vertical-align:top;">:</td><td><div>False</div></td></tr><tr><td style="font-weight:bold;vertical-align:top;">gluon_parent</td><td style="vertical-align:top;">:</td><td><div>C:\\Web2Py\\web2py_win\\web2py</div></td></tr><tr><td style="font-weight:bold;vertical-align:top;">http_accept</td><td style="vertical-align:top;">:</td><td><div>text/html,application/xhtml+xml,application/xml;q=0.9,image/webp,*/*;q=0.8</div></td></tr><tr><td style="font-weight:bold;vertical-align:top;">http_accept_encoding</td><td style="vertical-align:top;">:</td><td><div>gzip,deflate,sdch</div></td></tr><tr><td style="font-weight:bold;vertical-align:top;">http_accept_language</td><td style="vertical-align:top;">:</td><td><div>en-GB,en-US;q=0.8,en;q=0.6</div></td></tr><tr><td style="font-weight:bold;vertical-align:top;">http_connection</td><td style="vertical-align:top;">:</td><td><div>keep-alive</div></td></tr><tr><td style="font-weight:bold;vertical-align:top;">http_cookie</td><td style="vertical-align:top;">:</td><td><div>session_id_welcome=127.0.0.1-30852f1f-dbd3-4033-a19b-39174c48f8c3; session_id_admin=127.0.0.1-2e4b5e37-2da1-4ce5-98ff-77eed537c386; session_id_bootup=127.0.0.1-09d79149-d486-4849-94fd-90353d097c20</div></td></tr><tr><td style="font-weight:bold;vertical-align:top;">http_host</td><td style="vertical-align:top;">:</td><td><div>127.0.0.1:8000</div></td></tr><tr><td style="font-weight:bold;vertical-align:top;">http_referer</td><td style="vertical-align:top;">:</td><td><div>http://127.0.0.1:8000/BootUp/default/index</div></td></tr><tr><td style="font-weight:bold;vertical-align:top;">http_user_agent</td><td style="vertical-align:top;">:</td><td><div>Mozilla/5.0 (Windows NT 6.3; WOW64) AppleWebKit/537.36 (KHTML, like Gecko) Chrome/38.0.2125.111 Safari/537.36</div></td></tr><tr><td style="font-weight:bold;vertical-align:top;">is_jython</td><td style="vertical-align:top;">:</td><td><div>False</div></td></tr><tr><td style="font-weight:bold;vertical-align:top;">is_pypy</td><td style="vertical-align:top;">:</td><td><div>False</div></td></tr><tr><td style="font-weight:bold;vertical-align:top;">is_source</td><td style="vertical-align:top;">:</td><td><div>False</div></td></tr><tr><td style="font-weight:bold;vertical-align:top;">local_hosts</td><td style="vertical-align:top;">:</td><td><div><table><tr><td><div>2001:0:9d38:6abd:3837:2125:3f57:fffa</div></td></tr><tr><td><div>fe80::3837:2125:3f57:fffa%7</div></td></tr><tr><td><div>::ffff:127.0.0.1</div></td></tr><tr><td><div>::1</div></td></tr><tr><td><div>fe80::4525:5167:23e5:dd66%4</div></td></tr><tr><td><div>RorysPC.Home</div></td></tr><tr><td><div>192.168.0.5</div></td></tr><tr><td><div>RorysPC</div></td></tr><tr><td><div>127.0.0.1</div></td></tr></table></div></td></tr><tr><td style="font-weight:bold;vertical-align:top;">path_info</td><td style="vertical-align:top;">:</td><td><div>/BootUp/profile/profile</div></td></tr><tr><td style="font-weight:bold;vertical-align:top;">query_string</td><td style="vertical-align:top;">:</td><td><div></div></td></tr><tr><td style="font-weight:bold;vertical-align:top;">remote_addr</td><td style="vertical-align:top;">:</td><td><div>127.0.0.1</div></td></tr><tr><td style="font-weight:bold;vertical-align:top;">remote_port</td><td style="vertical-align:top;">:</td><td><div>4057</div></td></tr><tr><td style="font-weight:bold;vertical-align:top;">request_method</td><td style="vertical-align:top;">:</td><td><div>GET</div></td></tr><tr><td style="font-weight:bold;vertical-align:top;">request_uri</td><td style="vertical-align:top;">:</td><td><div>/BootUp/profile/profile</div></td></tr><tr><td style="font-weight:bold;vertical-align:top;">script_name</td><td style="vertical-align:top;">:</td><td><div></div></td></tr><tr><td style="font-weight:bold;vertical-align:top;">server_name</td><td style="vertical-align:top;">:</td><td><div>RorysPC</div></td></tr><tr><td style="font-weight:bold;vertical-align:top;">server_port</td><td style="vertical-align:top;">:</td><td><div>8000</div></td></tr><tr><td style="font-weight:bold;vertical-align:top;">server_protocol</td><td style="vertical-align:top;">:</td><td><div>HTTP/1.1</div></td></tr><tr><td style="font-weight:bold;vertical-align:top;">server_software</td><td style="vertical-align:top;">:</td><td><div>Rocket 1.2.6</div></td></tr><tr><td style="font-weight:bold;vertical-align:top;">web2py_path</td><td style="vertical-align:top;">:</td><td><div>C:\\Web2Py\\web2py_win\\web2py</div></td></tr><tr><td style="font-weight:bold;vertical-align:top;">web2py_version</td><td style="vertical-align:top;">:</td><td><div>2.9.11-stable+timestamp.2014.09.15.23.35.11</div></td></tr><tr><td style="font-weight:bold;vertical-align:top;">wsgi.errors</td><td style="vertical-align:top;">:</td><td><div>&lt;open file &#x27;&lt;stderr&gt;&#x27;, mode &#x27;w&#x27; at 0x01C760D0&gt;</div></td></tr><tr><td style="font-weight:bold;vertical-align:top;">wsgi.file_wrapper</td><td style="vertical-align:top;">:</td><td><div>&lt;class wsgiref.util.FileWrapper at 0x01FBFCA8&gt;</div></td></tr><tr><td style="font-weight:bold;vertical-align:top;">wsgi.input</td><td style="vertical-align:top;">:</td><td><div>&lt;socket._fileobject object at 0x077FEC70&gt;</div></td></tr><tr><td style="font-weight:bold;vertical-align:top;">wsgi.multiprocess</td><td style="vertical-align:top;">:</td><td><div>False</div></td></tr><tr><td style="font-weight:bold;vertical-align:top;">wsgi.multithread</td><td style="vertical-align:top;">:</td><td><div>True</div></td></tr><tr><td style="font-weight:bold;vertical-align:top;">wsgi.run_once</td><td style="vertical-align:top;">:</td><td><div>False</div></td></tr><tr><td style="font-weight:bold;vertical-align:top;">wsgi.url_scheme</td><td style="vertical-align:top;">:</td><td><div>http</div></td></tr><tr><td style="font-weight:bold;vertical-align:top;">wsgi.version</td><td style="vertical-align:top;">:</td><td><div><table><tr><td><div>1</div></td></tr><tr><td><div>0</div></td></tr></table></div></td></tr><tr><td style="font-weight:bold;vertical-align:top;">wsgi_errors</td><td style="vertical-align:top;">:</td><td><div>&lt;open file &#x27;&lt;stderr&gt;&#x27;, mode &#x27;w&#x27; at 0x01C760D0&gt;</div></td></tr><tr><td style="font-weight:bold;vertical-align:top;">wsgi_file_wrapper</td><td style="vertical-align:top;">:</td><td><div>&lt;class wsgiref.util.FileWrapper at 0x01FBFCA8&gt;</div></td></tr><tr><td style="font-weight:bold;vertical-align:top;">wsgi_input</td><td style="vertical-align:top;">:</td><td><div>&lt;socket._fileobject object at 0x077FEC70&gt;</div></td></tr><tr><td style="font-weight:bold;vertical-align:top;">wsgi_multiprocess</td><td style="vertical-align:top;">:</td><td><div>False</div></td></tr><tr><td style="font-weight:bold;vertical-align:top;">wsgi_multithread</td><td style="vertical-align:top;">:</td><td><div>True</div></td></tr><tr><td style="font-weight:bold;vertical-align:top;">wsgi_run_once</td><td style="vertical-align:top;">:</td><td><div>False</div></td></tr><tr><td style="font-weight:bold;vertical-align:top;">wsgi_url_scheme</td><td style="vertical-align:top;">:</td><td><div>http</div></td></tr><tr><td style="font-weight:bold;vertical-align:top;">wsgi_version</td><td style="vertical-align:top;">:</td><td><div><table><tr><td><div>1</div></td></tr><tr><td><div>0</div></td></tr></table></div></td></tr></table></div></td></tr><tr><td style="font-weight:bold;vertical-align:top;">extension</td><td style="vertical-align:top;">:</td><td><div>html</div></td></tr><tr><td style="font-weight:bold;vertical-align:top;">folder</td><td style="vertical-align:top;">:</td><td><div>C:\\Web2Py\\web2py_win\\web2py\\applications\\BootUp\\</div></td></tr><tr><td style="font-weight:bold;vertical-align:top;">function</td><td style="vertical-align:top;">:</td><td><div>profile</div></td></tr><tr><td style="font-weight:bold;vertical-align:top;">global_settings</td><td style="vertical-align:top;">:</td><td><div><table><tr><td style="font-weight:bold;vertical-align:top;">app_folders</td><td style="vertical-align:top;">:</td><td><div>set([&#x27;C:\\\\Web2Py\\\\web2py_win\\\\web2py\\\\applications\\\\welcome\\\\&#x27;, &#x27;C:\\\\Web2Py\\\\web2py_win\\\\web2py\\\\applications\\\\admin\\\\&#x27;, &#x27;C:\\\\Web2Py\\\\web2py_win\\\\web2py\\\\applications\\\\BootUp\\\\&#x27;])</div></td></tr><tr><td style="font-weight:bold;vertical-align:top;">applications_parent</td><td style="vertical-align:top;">:</td><td><div>C:\\Web2Py\\web2py_win\\web2py</div></td></tr><tr><td style="font-weight:bold;vertical-align:top;">cmd_args</td><td style="vertical-align:top;">:</td><td><div><table></table></div></td></tr><tr><td style="font-weight:bold;vertical-align:top;">cmd_options</td><td style="vertical-align:top;">:</td><td><div>&lt;Values at 0x2f0a288: {&#x27;verbose&#x27;: False, &#x27;ip&#x27;: &#x27;127.0.0.1&#x27;, &#x27;debuglevel&#x27;: 30, &#x27;with_scheduler&#x27;: False, &#x27;ips&#x27;: [&#x27;192.168.0.5&#x27;], &#x27;shutdown_timeout&#x27;: 5, &#x27;taskbar&#x27;: False, &#x27;with_coverage&#x27;: False, &#x27;scheduler_groups&#x27;: None, &#x27;port&#x27;: 8000, &#x27;maxthreads&#x27;: None, &#x27;softcron&#x27;: False, &#x27;server_name&#x27;: &#x27;RorysPC&#x27;, &#x27;bpython&#x27;: False, &#x27;nogui&#x27;: False, &#x27;pid_filename&#x27;: &#x27;httpserver.pid&#x27;, &#x27;extcron&#x27;: False, &#x27;runcron&#x27;: False, &#x27;run_system_tests&#x27;: False, &#x27;test&#x27;: None, &#x27;folder&#x27;: &#x27;C:\\\\Web2Py\\\\web2py_win\\\\web2py&#x27;, &#x27;config&#x27;: &#x27;&#x27;, &#x27;minthreads&#x27;: None, &#x27;shell&#x27;: None, &#x27;run&#x27;: &#x27;&#x27;, &#x27;log_filename&#x27;: &#x27;httpserver.log&#x27;, &#x27;profiler_dir&#x27;: None, &#x27;args&#x27;: [&#x27;&#x27;], &#x27;socket_timeout&#x27;: 5, &#x27;ssl_ca_certificate&#x27;: None, &#x27;scheduler&#x27;: None, &#x27;interfaces&#x27;: None, &#x27;ssl_private_key&#x27;: &#x27;&#x27;, &#x27;gae&#x27;: None, &#x27;password&#x27;: &#x27;&lt;ask&gt;&#x27;, &#x27;request_queue_size&#x27;: 5, &#x27;ssl_certificate&#x27;: &#x27;&#x27;, &#x27;cronjob&#x27;: False, &#x27;numthreads&#x27;: None, &#x27;quiet&#x27;: False, &#x27;import_models&#x27;: False, &#x27;timeout&#x27;: 10, &#x27;plain&#x27;: False, &#x27;nobanner&#x27;: False}&gt;</div></td></tr><tr><td style="font-weight:bold;vertical-align:top;">db_sessions</td><td style="vertical-align:top;">:</td><td><div>set([])</div></td></tr><tr><td style="font-weight:bold;vertical-align:top;">debugging</td><td style="vertical-align:top;">:</td><td><div>False</div></td></tr><tr><td style="font-weight:bold;vertical-align:top;">gluon_parent</td><td style="vertical-align:top;">:</td><td><div>C:\\Web2Py\\web2py_win\\web2py</div></td></tr><tr><td style="font-weight:bold;vertical-align:top;">is_jython</td><td style="vertical-align:top;">:</td><td><div>False</div></td></tr><tr><td style="font-weight:bold;vertical-align:top;">is_pypy</td><td style="vertical-align:top;">:</td><td><div>False</div></td></tr><tr><td style="font-weight:bold;vertical-align:top;">is_source</td><td style="vertical-align:top;">:</td><td><div>False</div></td></tr><tr><td style="font-weight:bold;vertical-align:top;">local_hosts</td><td style="vertical-align:top;">:</td><td><div><table><tr><td><div>2001:0:9d38:6abd:3837:2125:3f57:fffa</div></td></tr><tr><td><div>fe80::3837:2125:3f57:fffa%7</div></td></tr><tr><td><div>::ffff:127.0.0.1</div></td></tr><tr><td><div>::1</div></td></tr><tr><td><div>fe80::4525:5167:23e5:dd66%4</div></td></tr><tr><td><div>RorysPC.Home</div></td></tr><tr><td><div>192.168.0.5</div></td></tr><tr><td><div>RorysPC</div></td></tr><tr><td><div>127.0.0.1</div></td></tr></table></div></td></tr><tr><td style="font-weight:bold;vertical-align:top;">web2py_version</td><td style="vertical-align:top;">:</td><td><div>2.9.11-stable+timestamp.2014.09.15.23.35.11</div></td></tr></table></div></td></tr><tr><td style="font-weight:bold;vertical-align:top;">is_https</td><td style="vertical-align:top;">:</td><td><div>False</div></td></tr><tr><td style="font-weight:bold;vertical-align:top;">is_local</td><td style="vertical-align:top;">:</td><td><div>True</div></td></tr><tr><td style="font-weight:bold;vertical-align:top;">is_restful</td><td style="vertical-align:top;">:</td><td><div>False</div></td></tr><tr><td style="font-weight:bold;vertical-align:top;">is_sheduler</td><td style="vertical-align:top;">:</td><td><div>None</div></td></tr><tr><td style="font-weight:bold;vertical-align:top;">is_shell</td><td style="vertical-align:top;">:</td><td><div>None</div></td></tr><tr><td style="font-weight:bold;vertical-align:top;">now</td><td style="vertical-align:top;">:</td><td><div>datetime.datetime(2014, 11, 19, 21, 25, 38, 300000)</div></td></tr><tr><td style="font-weight:bold;vertical-align:top;">raw_args</td><td style="vertical-align:top;">:</td><td><div></div></td></tr><tr><td style="font-weight:bold;vertical-align:top;">raw_extension</td><td style="vertical-align:top;">:</td><td><div>None</div></td></tr><tr><td style="font-weight:bold;vertical-align:top;">url</td><td style="vertical-align:top;">:</td><td><div>/BootUp/profile/profile</div></td></tr><tr><td style="font-weight:bold;vertical-align:top;">utcnow</td><td style="vertical-align:top;">:</td><td><div>datetime.datetime(2014, 11, 19, 21, 25, 38, 300000)</div></td></tr><tr><td style="font-weight:bold;vertical-align:top;">uuid</td><td style="vertical-align:top;">:</td><td><div>BootUp/127.0.0.1.2014-11-19.21-25-38.7332d74f-e79b-41b9-a3a6-2849ce825572</div></td></tr><tr><td style="font-weight:bold;vertical-align:top;">wsgi</td><td style="vertical-align:top;">:</td><td><div>&lt;gluon.main.LazyWSGI object at 0x07A09490&gt;</div></td></tr></table></div>'
tRp58
sS'frames'
p59
(lp60
(dp61
S'file'
p62
S'C:\\Web2Py\\web2py_win\\web2py\\gluon\\restricted.py'
p63
sS'dump'
p64
(dp65
sS'lnum'
p66
I224
sS'lines'
p67
(dp68
sS'call'
p69
S'(code=r"response.write(\'<!DOCTYPE html>\\r\\n<head>\\r\\n\\t<...r\\n\\r\\n\\r\\n</body>\\r\\n\\r\\n</html>\', escape=False)", environment={\'A\': <class \'gluon.html.A\'>, \'ANY_OF\': <class \'gluon.validators.ANY_OF\'>, \'ASSIGNJS\': <function ASSIGNJS>, \'Auth\': <class \'gluon.tools.Auth\'>, \'B\': <class \'gluon.html.B\'>, \'BEAUTIFY\': <class \'gluon.html.BEAUTIFY\'>, \'BODY\': <class \'gluon.html.BODY\'>, \'BR\': <class \'gluon.html.BR\'>, \'BUTTON\': <class \'gluon.html.BUTTON\'>, \'CAT\': <class \'gluon.html.CAT\'>, ...}, layer=r\'C:\\Web2Py\\web2py_win\\web2py\\applications\\BootUp\\views\\profile/profile.html\')'
p70
sS'func'
p71
S'restricted'
p72
sa(dp73
g62
S'C:\\Web2Py\\web2py_win\\web2py\\applications\\BootUp\\views\\profile\\profile.html'
p74
sg64
(dp75
sg66
I44
sg67
(dp76
I35
S'    response.write(\' "> Login</a></li>\\r\\n                                <li class="divider-vertical"></li>\\r\\n                                <li> <a href="\', escape=False)'
p77
sI36
S"    response.write(URL('default','register'))"
p78
sI37
S'    response.write(\' "> Register</a></li>\\r\\n\\r\\n\\r\\n                                \', escape=False)'
p79
sI38
S'    pass'
p80
sI39
S'response.write(\'\\r\\n\\r\\n                            </ul>\\r\\n\\r\\n                        </div>\\r\\n\\r\\n\\r\\n                    </div>\\r\\n                </div>\\r\\n            </div>\\r\\n        </div>\\r\\n\\r\\n        <div class="after-nav">\\r\\n\\r\\n\\r\\n\\r\\n        \', escape=False)'
p81
sI40
S'response.write(\'\\r\\n\\r\\n<div class="pad-breadcrumbs-away-from-nav">\\r\\n    <ul class="breadcrumb ">\\r\\n      <li><a href="\', escape=False)'
p82
sI41
S"response.write(URL('default','index.html'))"
p83
sI42
S'response.write(\' ">Home</a> <span class="divider">/</span></li>\\r\\n      <li class="active">Profile</li>\\r\\n    </ul>\\r\\n</div>\\r\\n\\r\\n        \', escape=False)'
p84
sI43
S'response.write(\'\\r\\n\\r\\n\\r\\n<div class="page-header">\\r\\n    <h1>\', escape=False)'
p85
sI44
S'user.first_name + " " + user.last_name'
p86
sI45
S'response.write(\' <small>0 Pledges and 0 Projects</small></h1>\\r\\n</div>\\r\\n\\r\\n\\r\\n<ul class="nav nav-tabs nav-stacked">\\r\\n    <li><a href="#"> <h1>Your Projects </h1></a> </li>\\r\\n    <li><a href="#"><h1>Your Pledges </h1></a></li>\\r\\n    <li><a href="#"><h1>Your Information </h1></a></li>\\r\\n</ul>\\r\\n\\r\\n<div class="hero-unit">\\r\\n  <h1>Fancy Starting Something Special?</h1>\\r\\n  <p>Start your own project to finally fulfil your dreams</p>\\r\\n  <p>\\r\\n    <a class="btn btn-primary btn-large">\\r\\n      Create a Project\\r\\n    </a>\\r\\n  </p>\\r\\n</div>\\r\\n\\r\\n\\r\\n\\r\\n\\r\\n\\r\\n\\r\\n\', escape=False)'
p87
sI46
S"response.write('\\r\\n        ', escape=False)"
p88
sI47
S'pass'
p89
sI48
S"response.write('\\r\\n        ', escape=False)"
p90
sI49
S'pass'
p91
sI50
S"response.write('\\r\\n\\r\\n        </div>\\r\\n\\r\\n    </div>\\r\\n\\r\\n\\r\\n</body>\\r\\n\\r\\n</html>', escape=False)"
p92
ssg69
S'()'
p93
sg71
S'<module>'
p94
sasS'pyver'
p95
S'Python 2.7.6: C:\\Web2Py\\web2py_win\\web2py\\web2py.exe (prefix: )'
p96
sS'session'
p97
g57
(S'sn\t\x00\x00<div><table><tr><td style="font-weight:bold;vertical-align:top;">auth</td><td style="vertical-align:top;">:</td><td><div><table><tr><td style="font-weight:bold;vertical-align:top;">expiration</td><td style="vertical-align:top;">:</td><td><div>3600</div></td></tr><tr><td style="font-weight:bold;vertical-align:top;">hmac_key</td><td style="vertical-align:top;">:</td><td><div>edbb7cb9-2a4e-41d7-8a17-562332ff19cb</div></td></tr><tr><td style="font-weight:bold;vertical-align:top;">last_visit</td><td style="vertical-align:top;">:</td><td><div>datetime.datetime(2014, 11, 19, 21, 25, 35, 896000)</div></td></tr><tr><td style="font-weight:bold;vertical-align:top;">user</td><td style="vertical-align:top;">:</td><td><div><table><tr><td style="font-weight:bold;vertical-align:top;">address_id</td><td style="vertical-align:top;">:</td><td><div>1L</div></td></tr><tr><td style="font-weight:bold;vertical-align:top;">bank_details_id</td><td style="vertical-align:top;">:</td><td><div>1L</div></td></tr><tr><td style="font-weight:bold;vertical-align:top;">birthdate</td><td style="vertical-align:top;">:</td><td><div>28/06/1994</div></td></tr><tr><td style="font-weight:bold;vertical-align:top;">email</td><td style="vertical-align:top;">:</td><td><div></div></td></tr><tr><td style="font-weight:bold;vertical-align:top;">first_name</td><td style="vertical-align:top;">:</td><td><div>Rory</div></td></tr><tr><td style="font-weight:bold;vertical-align:top;">id</td><td style="vertical-align:top;">:</td><td><div>1L</div></td></tr><tr><td style="font-weight:bold;vertical-align:top;">last_name</td><td style="vertical-align:top;">:</td><td><div>Simpson</div></td></tr><tr><td style="font-weight:bold;vertical-align:top;">registration_id</td><td style="vertical-align:top;">:</td><td><div></div></td></tr><tr><td style="font-weight:bold;vertical-align:top;">registration_key</td><td style="vertical-align:top;">:</td><td><div></div></td></tr><tr><td style="font-weight:bold;vertical-align:top;">reset_password_key</td><td style="vertical-align:top;">:</td><td><div></div></td></tr><tr><td style="font-weight:bold;vertical-align:top;">username</td><td style="vertical-align:top;">:</td><td><div>Rory</div></td></tr></table></div></td></tr><tr><td style="font-weight:bold;vertical-align:top;">user_groups</td><td style="vertical-align:top;">:</td><td><div><table></table></div></td></tr></table></div></td></tr></table></div>'
tRp98
sS'etype'
p99
S"<type 'exceptions.AttributeError'>"
p100
sS'date'
p101
S'Wed Nov 19 21:25:38 2014'
p102
sS'response'
p103
g57
(S's\x942\x00\x00<div><table><tr><td style="font-weight:bold;vertical-align:top;">body</td><td style="vertical-align:top;">:</td><td><div>&lt;cStringIO.StringO object at 0x079459E0&gt;</div></td></tr><tr><td style="font-weight:bold;vertical-align:top;">cookies</td><td style="vertical-align:top;">:</td><td><div><table><tr><td style="font-weight:bold;vertical-align:top;">session_id_bootup</td><td style="vertical-align:top;">:</td><td><div>127.0.0.1-09d79149-d486-4849-94fd-90353d097c20<table><tr><td style="font-weight:bold;vertical-align:top;">comment</td><td style="vertical-align:top;">:</td><td><div></div></td></tr><tr><td style="font-weight:bold;vertical-align:top;">domain</td><td style="vertical-align:top;">:</td><td><div></div></td></tr><tr><td style="font-weight:bold;vertical-align:top;">expires</td><td style="vertical-align:top;">:</td><td><div></div></td></tr><tr><td style="font-weight:bold;vertical-align:top;">httponly</td><td style="vertical-align:top;">:</td><td><div></div></td></tr><tr><td style="font-weight:bold;vertical-align:top;">max-age</td><td style="vertical-align:top;">:</td><td><div></div></td></tr><tr><td style="font-weight:bold;vertical-align:top;">path</td><td style="vertical-align:top;">:</td><td><div>/</div></td></tr><tr><td style="font-weight:bold;vertical-align:top;">secure</td><td style="vertical-align:top;">:</td><td><div></div></td></tr><tr><td style="font-weight:bold;vertical-align:top;">version</td><td style="vertical-align:top;">:</td><td><div></div></td></tr></table></div></td></tr></table></div></td></tr><tr><td style="font-weight:bold;vertical-align:top;">delimiters</td><td style="vertical-align:top;">:</td><td><div><table><tr><td><div>{{</div></td></tr><tr><td><div>}}</div></td></tr></table></div></td></tr><tr><td style="font-weight:bold;vertical-align:top;">files</td><td style="vertical-align:top;">:</td><td><div><table></table></div></td></tr><tr><td style="font-weight:bold;vertical-align:top;">flash</td><td style="vertical-align:top;">:</td><td><div></div></td></tr><tr><td style="font-weight:bold;vertical-align:top;">form_label_separator</td><td style="vertical-align:top;">:</td><td><div>: </div></td></tr><tr><td style="font-weight:bold;vertical-align:top;">formstyle</td><td style="vertical-align:top;">:</td><td><div>table3cols</div></td></tr><tr><td style="font-weight:bold;vertical-align:top;">generic_patterns</td><td style="vertical-align:top;">:</td><td><div><table><tr><td><div>*</div></td></tr></table></div></td></tr><tr><td style="font-weight:bold;vertical-align:top;">google_analytics_id</td><td style="vertical-align:top;">:</td><td><div>None</div></td></tr><tr><td style="font-weight:bold;vertical-align:top;">headers</td><td style="vertical-align:top;">:</td><td><div><table><tr><td style="font-weight:bold;vertical-align:top;">X-Powered-By</td><td style="vertical-align:top;">:</td><td><div>web2py</div></td></tr></table></div></td></tr><tr><td style="font-weight:bold;vertical-align:top;">logo</td><td style="vertical-align:top;">:</td><td><div><a class="brand" href="http://www.web2py.com/"><b>web<span>2</span>py</b>&trade;&nbsp;</a></div></td></tr><tr><td style="font-weight:bold;vertical-align:top;">menu</td><td style="vertical-align:top;">:</td><td><div><table><tr><td><div><table><tr><td><div>Home</div></td></tr><tr><td><div>False</div></td></tr><tr><td><div>/BootUp/default/index</div></td></tr><tr><td><div><table></table></div></td></tr></table></div></td></tr><tr><td><div><table><tr><td><div><span class="highlighted">web2py</span></div></td></tr><tr><td><div>False</div></td></tr><tr><td><div>http://web2py.com</div></td></tr><tr><td><div><table><tr><td><div><table><tr><td><div>My Sites</div></td></tr><tr><td><div>False</div></td></tr><tr><td><div>/admin/default/site</div></td></tr></table></div></td></tr><tr><td><div><table><tr><td><div>This App</div></td></tr><tr><td><div>False</div></td></tr><tr><td><div>/admin/default/design/BootUp</div></td></tr><tr><td><div>[(&lt;lazyT &#x27;Controller&#x27;&gt;, False, &#x27;/admin/default/edit/BootUp/controllers/profile.py&#x27;), (&lt;lazyT &#x27;View&#x27;&gt;, False, &#x27;/admin/default/edit/BootUp/views/profile/profile.html&#x27;), (&lt;lazyT &#x27;Layout&#x27;&gt;, False, &#x27;/admin/default/edit/BootUp/views/layout.html&#x27;), (&lt;lazyT &#x27;Stylesheet&#x27;&gt;, False, &#x27;/admin/default/edit/BootUp/static/css/web2py.css&#x27;), (&lt;lazyT &#x27;DB Model&#x27;&gt;, False, &#x27;/admin/default/edit/BootUp/models/db.py&#x27;), (&lt;lazyT &#x27;Menu Model&#x27;&gt;, False, &#x27;/admin/default/edit/BootUp/models/menu.py&#x27;), (&lt;lazyT &#x27;Database&#x27;&gt;, False, &#x27;/BootUp/appadmin/index&#x27;), (&lt;lazyT &#x27;Errors&#x27;&gt;, False, &#x27;/admin/default/errors/BootUp&#x27;), (&lt;lazyT &#x27;About&#x27;&gt;, False, &#x27;/admin/default/about/BootUp&#x27;)]</div></td></tr></table></div></td></tr><tr><td><div><table><tr><td><div>web2py.com</div></td></tr><tr><td><div>False</div></td></tr><tr><td><div>http://www.web2py.com</div></td></tr><tr><td><div>[(&lt;lazyT &#x27;Download&#x27;&gt;, False, &#x27;http://www.web2py.com/examples/default/download&#x27;), (&lt;lazyT &#x27;Support&#x27;&gt;, False, &#x27;http://www.web2py.com/examples/default/support&#x27;), (&lt;lazyT &#x27;Demo&#x27;&gt;, False, &#x27;http://web2py.com/demo_admin&#x27;), (&lt;lazyT &#x27;Quick Examples&#x27;&gt;, False, &#x27;http://web2py.com/examples/default/examples&#x27;), (&lt;lazyT &#x27;FAQ&#x27;&gt;, False, &#x27;http://web2py.com/AlterEgo&#x27;), (&lt;lazyT &#x27;Videos&#x27;&gt;, False, &#x27;http://www.web2py.com/examples/default/videos/&#x27;), (&lt;lazyT &#x27;Free Applications&#x27;&gt;, False, &#x27;http://web2py.com/appliances&#x27;), (&lt;lazyT &#x27;Plugins&#x27;&gt;, False, &#x27;http://web2py.com/plugins&#x27;), (&lt;lazyT &#x27;Layouts&#x27;&gt;, False, &#x27;http://web2py.com/layouts&#x27;), (&lt;lazyT &#x27;Recipes&#x27;&gt;, False, &#x27;http://web2pyslices.com/&#x27;), (&lt;lazyT &#x27;Semantic&#x27;&gt;, False, &#x27;http://web2py.com/semantic&#x27;)]</div></td></tr></table></div></td></tr><tr><td><div><table><tr><td><div>Documentation</div></td></tr><tr><td><div>False</div></td></tr><tr><td><div>http://www.web2py.com/book</div></td></tr><tr><td><div>[(&lt;lazyT &#x27;Preface&#x27;&gt;, False, &#x27;http://www.web2py.com/book/default/chapter/00&#x27;), (&lt;lazyT &#x27;Introduction&#x27;&gt;, False, &#x27;http://www.web2py.com/book/default/chapter/01&#x27;), (&lt;lazyT &#x27;Python&#x27;&gt;, False, &#x27;http://www.web2py.com/book/default/chapter/02&#x27;), (&lt;lazyT &#x27;Overview&#x27;&gt;, False, &#x27;http://www.web2py.com/book/default/chapter/03&#x27;), (&lt;lazyT &#x27;The Core&#x27;&gt;, False, &#x27;http://www.web2py.com/book/default/chapter/04&#x27;), (&lt;lazyT &#x27;The Views&#x27;&gt;, False, &#x27;http://www.web2py.com/book/default/chapter/05&#x27;), (&lt;lazyT &#x27;Database&#x27;&gt;, False, &#x27;http://www.web2py.com/book/default/chapter/06&#x27;), (&lt;lazyT &#x27;Forms and Validators&#x27;&gt;, False, &#x27;http://www.web2py.com/book/default/chapter/07&#x27;), (&lt;lazyT &#x27;Email and SMS&#x27;&gt;, False, &#x27;http://www.web2py.com/book/default/chapter/08&#x27;), (&lt;lazyT &#x27;Access Control&#x27;&gt;, False, &#x27;http://www.web2py.com/book/default/chapter/09&#x27;), (&lt;lazyT &#x27;Services&#x27;&gt;, False, &#x27;http://www.web2py.com/book/default/chapter/10&#x27;), (&lt;lazyT &#x27;Ajax Recipes&#x27;&gt;, False, &#x27;http://www.web2py.com/book/default/chapter/11&#x27;), (&lt;lazyT &#x27;Components and Plugins&#x27;&gt;, False, &#x27;http://www.web2py.com/book/default/chapter/12&#x27;), (&lt;lazyT &#x27;Deployment Recipes&#x27;&gt;, False, &#x27;http://www.web2py.com/book/default/chapter/13&#x27;), (&lt;lazyT &#x27;Other Recipes&#x27;&gt;, False, &#x27;http://www.web2py.com/book/default/chapter/14&#x27;), (&lt;lazyT &#x27;Buy this book&#x27;&gt;, False, &#x27;http://stores.lulu.com/web2py&#x27;)]</div></td></tr></table></div></td></tr><tr><td><div><table><tr><td><div>Community</div></td></tr><tr><td><div>False</div></td></tr><tr><td><div>None</div></td></tr><tr><td><div>[(&lt;lazyT &#x27;Groups&#x27;&gt;, False, &#x27;http://www.web2py.com/examples/default/usergroups&#x27;), (&lt;lazyT &#x27;Twitter&#x27;&gt;, False, &#x27;http://twitter.com/web2py&#x27;), (&lt;lazyT &#x27;Live Chat&#x27;&gt;, False, &#x27;http://webchat.freenode.net/?channels=web2py&#x27;)]</div></td></tr></table></div></td></tr><tr><td><div><table><tr><td><div>Plugins</div></td></tr><tr><td><div>False</div></td></tr><tr><td><div>None</div></td></tr><tr><td><div>[(&#x27;plugin_wiki&#x27;, False, &#x27;http://web2py.com/examples/default/download&#x27;), (&lt;lazyT &#x27;Other Plugins&#x27;&gt;, False, &#x27;http://web2py.com/plugins&#x27;), (&lt;lazyT &#x27;Layout Plugins&#x27;&gt;, False, &#x27;http://web2py.com/layouts&#x27;)]</div></td></tr></table></div></td></tr></table></div></td></tr></table></div></td></tr></table></div></td></tr><tr><td style="font-weight:bold;vertical-align:top;">meta</td><td style="vertical-align:top;">:</td><td><div><table><tr><td style="font-weight:bold;vertical-align:top;">author</td><td style="vertical-align:top;">:</td><td><div>Your Name &lt;you@example.com&gt;</div></td></tr><tr><td style="font-weight:bold;vertical-align:top;">generator</td><td style="vertical-align:top;">:</td><td><div>Web2py Web Framework</div></td></tr><tr><td style="font-weight:bold;vertical-align:top;">keywords</td><td style="vertical-align:top;">:</td><td><div>web2py, python, framework</div></td></tr></table></div></td></tr><tr><td style="font-weight:bold;vertical-align:top;">models_to_run</td><td style="vertical-align:top;">:</td><td><div><table><tr><td><div>^\\w+\\.py$</div></td></tr><tr><td><div>^profile/\\w+\\.py$</div></td></tr><tr><td><div>^profile/profile/\\w+\\.py$</div></td></tr></table></div></td></tr><tr><td style="font-weight:bold;vertical-align:top;">postprocessing</td><td style="vertical-align:top;">:</td><td><div><table></table></div></td></tr><tr><td style="font-weight:bold;vertical-align:top;">session_client</td><td style="vertical-align:top;">:</td><td><div>127.0.0.1</div></td></tr><tr><td style="font-weight:bold;vertical-align:top;">session_cookie_compression_level</td><td style="vertical-align:top;">:</td><td><div>None</div></td></tr><tr><td style="font-weight:bold;vertical-align:top;">session_cookie_expires</td><td style="vertical-align:top;">:</td><td><div>None</div></td></tr><tr><td style="font-weight:bold;vertical-align:top;">session_cookie_key</td><td style="vertical-align:top;">:</td><td><div>None</div></td></tr><tr><td style="font-weight:bold;vertical-align:top;">session_data_name</td><td style="vertical-align:top;">:</td><td><div>session_data_bootup</div></td></tr><tr><td style="font-weight:bold;vertical-align:top;">session_file</td><td style="vertical-align:top;">:</td><td><div>&lt;open file &#x27;C:\\\\Web2Py\\\\web2py_win\\\\web2py\\\\applications\\\\BootUp\\\\sessions\\\\039\\\\1b8\\\\127.0.0.1-09d79149-d486-4849-94fd-90353d097c20&#x27;, mode &#x27;rb+&#x27; at 0x02EF0C80&gt;</div></td></tr><tr><td style="font-weight:bold;vertical-align:top;">session_filename</td><td style="vertical-align:top;">:</td><td><div>C:\\Web2Py\\web2py_win\\web2py\\applications\\BootUp\\sessions\\127.0.0.1-09d79149-d486-4849-94fd-90353d097c20</div></td></tr><tr><td style="font-weight:bold;vertical-align:top;">session_hash</td><td style="vertical-align:top;">:</td><td><div>1be65dc179b01ac0f7ec424f65e1caa7</div></td></tr><tr><td style="font-weight:bold;vertical-align:top;">session_id</td><td style="vertical-align:top;">:</td><td><div>127.0.0.1-09d79149-d486-4849-94fd-90353d097c20</div></td></tr><tr><td style="font-weight:bold;vertical-align:top;">session_id_name</td><td style="vertical-align:top;">:</td><td><div>session_id_bootup</div></td></tr><tr><td style="font-weight:bold;vertical-align:top;">session_locked</td><td style="vertical-align:top;">:</td><td><div>True</div></td></tr><tr><td style="font-weight:bold;vertical-align:top;">session_masterapp</td><td style="vertical-align:top;">:</td><td><div>BootUp</div></td></tr><tr><td style="font-weight:bold;vertical-align:top;">session_new</td><td style="vertical-align:top;">:</td><td><div>False</div></td></tr><tr><td style="font-weight:bold;vertical-align:top;">session_storage_type</td><td style="vertical-align:top;">:</td><td><div>file</div></td></tr><tr><td style="font-weight:bold;vertical-align:top;">status</td><td style="vertical-align:top;">:</td><td><div>200</div></td></tr><tr><td style="font-weight:bold;vertical-align:top;">subtitle</td><td style="vertical-align:top;">:</td><td><div></div></td></tr><tr><td style="font-weight:bold;vertical-align:top;">title</td><td style="vertical-align:top;">:</td><td><div>Bootup</div></td></tr><tr><td style="font-weight:bold;vertical-align:top;">view</td><td style="vertical-align:top;">:</td><td><div>profile/profile.html</div></td></tr></table></div>'
tRp104
sS'locals'
p105
(dp106
S'Service'
p107
S"<class 'gluon.tools.Service'>"
p108
sS'OBJECT'
p109
S"<class 'gluon.html.OBJECT'>"
p110
sS'SQLDB'
p111
S"<class 'gluon.dal.DAL'>"
p112
sg97
S"<Storage {'_formkey[default]': ['04be9d2a-fc0e-4...1, 19, 21, 25, 35, 896000), 'user_groups': {}}>}>"
p113
sS'LINK'
p114
S"<class 'gluon.html.LINK'>"
p115
sS'BR'
p116
S"<class 'gluon.html.BR'>"
p117
sS'local_import'
p118
S'<function <lambda>>'
p119
sS'OPTGROUP'
p120
S"<class 'gluon.html.OPTGROUP'>"
p121
sS'__package__'
p122
S'None'
p123
sS'PRE'
p124
S"<class 'gluon.html.PRE'>"
p125
sS'IS_INT_IN_RANGE'
p126
S"<class 'gluon.validators.IS_INT_IN_RANGE'>"
p127
sS'IS_LOWER'
p128
S"<class 'gluon.validators.IS_LOWER'>"
p129
sS'IS_STRONG'
p130
S"<class 'gluon.validators.IS_STRONG'>"
p131
sS'cache'
p132
S'<gluon.cache.Cache object>'
p133
sS'IS_IN_DB'
p134
S"<class 'gluon.validators.IS_IN_DB'>"
p135
sS'TAG'
p136
S'<gluon.html.__TAG__ object>'
p137
sS'SQLField'
p138
S"<class 'gluon.dal.Field'>"
p139
sS'mail'
p140
S'<gluon.tools.Mail object>'
p141
sS'BODY'
p142
S"<class 'gluon.html.BODY'>"
p143
sS'IS_DATE_IN_RANGE'
p144
S"<class 'gluon.validators.IS_DATE_IN_RANGE'>"
p145
sS'IFRAME'
p146
S"<class 'gluon.html.IFRAME'>"
p147
sS'URL'
p148
S'<function URL>'
p149
sS'__file__'
p150
S"r'C:\\Web2Py\\web2py_win\\web2py\\applications\\BootUp\\views\\profile/profile.html'"
p151
sS'db'
p152
S'<DAL uri="sqlite://bootup.db">'
p153
sS'auth'
p154
S'<gluon.tools.Auth object>'
p155
sS'P'
S"<class 'gluon.html.P'>"
p156
sS'TFOOT'
p157
S"<class 'gluon.html.TFOOT'>"
p158
sS'XHTML'
p159
S"<class 'gluon.html.XHTML'>"
p160
sS'ON'
p161
S'True'
p162
sS'OL'
p163
S"<class 'gluon.html.OL'>"
p164
sS'TEXTAREA'
p165
S"<class 'gluon.html.TEXTAREA'>"
p166
sS'MENU'
p167
S"<class 'gluon.html.MENU'>"
p168
sS'IS_IMAGE'
p169
S"<class 'gluon.validators.IS_IMAGE'>"
p170
sS'EM'
p171
S"<class 'gluon.html.EM'>"
p172
sS'CODE'
p173
S"<class 'gluon.html.CODE'>"
p174
sS'HTTP'
p175
S"<class 'gluon.http.HTTP'>"
p176
sS'HR'
p177
S"<class 'gluon.html.HR'>"
p178
sS'IS_DATETIME'
p179
S"<class 'gluon.validators.IS_DATETIME'>"
p180
sS'STYLE'
p181
S"<class 'gluon.html.STYLE'>"
p182
sS'LABEL'
p183
S"<class 'gluon.html.LABEL'>"
p184
sS'CLEANUP'
p185
S"<class 'gluon.validators.CLEANUP'>"
p186
sS'plugins'
p187
S'<gluon.tools.PluginManager object>'
p188
sS'SELECT'
p189
S"<class 'gluon.html.SELECT'>"
p190
sS'use_janrain'
p191
S'<function use_janrain>'
p192
sS'CENTER'
p193
S"<class 'gluon.html.CENTER'>"
p194
sS'Auth'
p195
S"<class 'gluon.tools.Auth'>"
p196
sS'DEVELOPMENT_MENU'
p197
g162
sS'__builtins__'
p198
S"{'ArithmeticError': <type 'exceptions.ArithmeticError'>, 'AssertionError': <type 'exceptions.AssertionError'>, 'AttributeError': <type 'exceptions.AttributeError'>, 'BaseException': <type 'exceptions.BaseException'>, 'BufferError': <type 'exceptions.BufferError'>, 'BytesWarning': <type 'exceptions.BytesWarning'>, 'DeprecationWarning': <type 'exceptions.DeprecationWarning'>, 'EOFError': <type 'exceptions.EOFError'>, 'Ellipsis': Ellipsis, 'EnvironmentError': <type 'exceptions.EnvironmentError'>, ...}"
p199
sS'HTML'
p200
S"<class 'gluon.html.HTML'>"
p201
sS'SQLFORM'
p202
S"<class 'gluon.sqlhtml.SQLFORM'>"
p203
sS'LOAD'
p204
S'<function LOAD>'
p205
sS'redirect'
p206
S'<function redirect>'
p207
sS'FIELDSET'
p208
S"<class 'gluon.html.FIELDSET'>"
p209
sS'IS_EQUAL_TO'
p210
S"<class 'gluon.validators.IS_EQUAL_TO'>"
p211
sS'embed64'
p212
S'<function embed64>'
p213
sS'IS_LIST_OF'
p214
S"<class 'gluon.validators.IS_LIST_OF'>"
p215
sS'INPUT'
p216
S"<class 'gluon.html.INPUT'>"
p217
sS'EMBED'
p218
S"<class 'gluon.html.EMBED'>"
p219
sS'_'
S'<function _>'
p220
sS'H2'
p221
S"<class 'gluon.html.H2'>"
p222
sS'H3'
p223
S"<class 'gluon.html.H3'>"
p224
sS'BUTTON'
p225
S"<class 'gluon.html.BUTTON'>"
p226
sS'H1'
p227
S"<class 'gluon.html.H1'>"
p228
sS'H6'
p229
S"<class 'gluon.html.H6'>"
p230
sS'H4'
p231
S"<class 'gluon.html.H4'>"
p232
sS'H5'
p233
S"<class 'gluon.html.H5'>"
p234
sS'UL'
p235
S"<class 'gluon.html.UL'>"
p236
sS'IS_UPPER'
p237
S"<class 'gluon.validators.IS_UPPER'>"
p238
sS'xmlescape'
p239
S'<function xmlescape>'
p240
sS'IS_TIME'
p241
S"<class 'gluon.validators.IS_TIME'>"
p242
sS'OPTION'
p243
S"<class 'gluon.html.OPTION'>"
p244
sS'TITLE'
p245
S"<class 'gluon.html.TITLE'>"
p246
sS'CRYPT'
p247
S"<class 'gluon.validators.CRYPT'>"
p248
sS'IS_EMPTY_OR'
p249
S"<class 'gluon.validators.IS_EMPTY_OR'>"
p250
sS'MARKMIN'
p251
S"<class 'gluon.html.MARKMIN'>"
p252
sS'__name__'
p253
S"'__restricted__'"
p254
sS'STRONG'
p255
S"<class 'gluon.html.STRONG'>"
p256
sS'COL'
p257
S"<class 'gluon.html.COL'>"
p258
sS'service'
p259
S'<gluon.tools.Service object>'
p260
sS'SCRIPT'
p261
S"<class 'gluon.html.SCRIPT'>"
p262
sS'TABLE'
p263
S"<class 'gluon.html.TABLE'>"
p264
sS'IS_IPV4'
p265
S"<class 'gluon.validators.IS_IPV4'>"
p266
sS'IS_LENGTH'
p267
S"<class 'gluon.validators.IS_LENGTH'>"
p268
sS'IS_IPV6'
p269
S"<class 'gluon.validators.IS_IPV6'>"
p270
sS'XML'
p271
S"<class 'gluon.html.XML'>"
p272
sS'B'
S"<class 'gluon.html.B'>"
p273
sS'IMG'
p274
S"<class 'gluon.html.IMG'>"
p275
sS'SQLTABLE'
p276
S"<class 'gluon.sqlhtml.SQLTABLE'>"
p277
sS'IS_MATCH'
p278
S"<class 'gluon.validators.IS_MATCH'>"
p279
sS'IS_ALPHANUMERIC'
p280
S"<class 'gluon.validators.IS_ALPHANUMERIC'>"
p281
sS'SPAN'
p282
S"<class 'gluon.html.SPAN'>"
p283
sS'IS_JSON'
p284
S"<class 'gluon.validators.IS_JSON'>"
p285
sS'IS_IPADDRESS'
p286
S"<class 'gluon.validators.IS_IPADDRESS'>"
p287
sS'IS_SLUG'
p288
S"<class 'gluon.validators.IS_SLUG'>"
p289
sS'BEAUTIFY'
p290
S"<class 'gluon.html.BEAUTIFY'>"
p291
sS'META'
p292
S"<class 'gluon.html.META'>"
p293
sS'IS_DATE'
p294
S"<class 'gluon.validators.IS_DATE'>"
p295
sS'IS_EMAIL'
p296
S"<class 'gluon.validators.IS_EMAIL'>"
p297
sS'IS_NOT_EMPTY'
p298
S"<class 'gluon.validators.IS_NOT_EMPTY'>"
p299
sS'IS_FLOAT_IN_RANGE'
p300
S"<class 'gluon.validators.IS_FLOAT_IN_RANGE'>"
p301
sS'TBODY'
p302
S"<class 'gluon.html.TBODY'>"
p303
sS'CAT'
p304
S"<class 'gluon.html.CAT'>"
p305
sS'Field'
p306
S"<class 'gluon.dal.Field'>"
p307
sS'IS_LIST_OF_EMAILS'
p308
S"<class 'gluon.validators.IS_LIST_OF_EMAILS'>"
p309
sS'DIV'
p310
S"<class 'gluon.html.DIV'>"
p311
sS'LEGEND'
p312
S"<class 'gluon.html.LEGEND'>"
p313
sS'COLGROUP'
p314
S"<class 'gluon.html.COLGROUP'>"
p315
sS'DAL'
p316
S"<class 'gluon.dal.DAL'>"
p317
sS'ASSIGNJS'
p318
S'<function ASSIGNJS>'
p319
sS'TR'
p320
S"<class 'gluon.html.TR'>"
p321
sS'LI'
p322
S"<class 'gluon.html.LI'>"
p323
sS'TH'
p324
S"<class 'gluon.html.TH'>"
p325
sS'TD'
p326
S"<class 'gluon.html.TD'>"
p327
sS'PluginManager'
p328
S"<class 'gluon.tools.PluginManager'>"
p329
sS'IS_URL'
p330
S"<class 'gluon.validators.IS_URL'>"
p331
sS'A'
S"<class 'gluon.html.A'>"
p332
sS'HEAD'
p333
S"<class 'gluon.html.HEAD'>"
p334
sS'IS_DATETIME_IN_RANGE'
p335
S"<class 'gluon.validators.IS_DATETIME_IN_RANGE'>"
p336
sS'FORM'
p337
S"<class 'gluon.html.FORM'>"
p338
sS'I'
S"<class 'gluon.html.I'>"
p339
sS'IS_NOT_IN_DB'
p340
S"<class 'gluon.validators.IS_NOT_IN_DB'>"
p341
sS'user'
p342
S'<Rows (1)>'
p343
sg103
S"<Storage {'body': <cStringIO.StringO object at 0... at 0x077FE770>, 'view': 'profile/profile.html'}>"
p344
sS'THEAD'
p345
S"<class 'gluon.html.THEAD'>"
p346
sS'ANY_OF'
p347
S"<class 'gluon.validators.ANY_OF'>"
p348
sS'IS_NULL_OR'
p349
S"<class 'gluon.validators.IS_EMPTY_OR'>"
p350
sg56
S"<Storage {'_vars': None, 'function': 'profile', ...Py\\\\web2py_win\\\\web2py\\\\applications\\\\BootUp\\\\'}>"
p351
sS'IS_EXPR'
p352
S"<class 'gluon.validators.IS_EXPR'>"
p353
sS'T'
S'<gluon.languages.translator object>'
p354
sS'IS_IN_SET'
p355
S"<class 'gluon.validators.IS_IN_SET'>"
p356
sS'IS_UPLOAD_FILENAME'
p357
S"<class 'gluon.validators.IS_UPLOAD_FILENAME'>"
p358
sS'TT'
p359
S"<class 'gluon.html.TT'>"
p360
sS'IS_DECIMAL_IN_RANGE'
p361
S"<class 'gluon.validators.IS_DECIMAL_IN_RANGE'>"
p362
sssS'traceback'
p363
S'Traceback (most recent call last):\n  File "gluon/restricted.py", line 224, in restricted\n  File "C:\\Web2Py\\web2py_win\\web2py\\applications\\BootUp\\views\\profile/profile.html", line 44, in <module>\nAttributeError: \'Rows\' object has no attribute \'first_name\'\n'
p364
s.