(dp1
S'output'
p2
S'Unable to open included view file: C:\\Web2Py\\web2py_win\\web2py\\applications\\BootUp\\views\\subviews\\displayProjectInformation'
p3
sS'layer'
p4
S'ParserContainer'
p5
sS'code'
p6
S'{{extend "bootup-profile-layout.html"}}\r\n\r\n<div class="well span12">\r\n    <div class="tabbable">\r\n        <ul class="nav nav-tabs">\r\n            <li class="active"><a href="#tab1" data-toggle="tab"><h4>Open for Pledges </h4></a></li>\r\n            <li><a href="#tab2" data-toggle="tab"> <h4> Not Available </h4> </a></li>\r\n            <li><a href="#tab3" data-toggle="tab"><h4> Funded </h4></a></li>\r\n            <li><a href="#tab4" data-toggle="tab"><h4> Not Funded </h4></a></li>\r\n        </ul>\r\n        <div class="tab-content">\r\n            <div class="tab-pane active" id="tab1">\r\n\r\n                {{if len(open_for_pledges_projects) == 0:}}\r\n                <h1> You have no bootables open for pledges</h1>\r\n                {{else:}}\r\n                {{for project in open_for_pledges_projects:}}\r\n                    <div class="row">\r\n                        <div class="span3"> <img width="100%" class="img-rounded" src="{{=URL(\'default\',\'download\',args = project.image)}}"/></div>\r\n                        <div class="span4">\r\n\r\n                            <h3>{{=project.title}} </h3>\r\n                            <h2> <small> Funding Goal is </small>  \xc2\xa3 {{=int(project.funding_target)}} </h2>\r\n                            <h2> <small>Category is </small>  {{=project.category}} </h2>\r\n                            <h2> <small>Amount raised is </small>  \xc2\xa3{{=int(project.funding_raised)}} </h2>\r\n\r\n                        </div>\r\n                        <div class="span3">\r\n                            <a href="{{=URL(\'projects\',\'project\', args=project.id)}}"><button class="btn btn-inverse btn-block" type="button">View Bootable Page</button></a>\r\n                            <br>\r\n                            <a href="{{=URL(\'profile\',\'close_from_pledges\', args=project.id)}}"><button class="btn btn-danger" type="button">Close From Pledges</button></a>\r\n\r\n                        </div>\r\n                    </div>\r\n                    <hr>\r\n                {{pass}}\r\n                {{pass}}\r\n\r\n\r\n\r\n            </div>\r\n            <div class="tab-pane" id="tab2">\r\n\r\n                 {{if len(not_available_projects) == 0:}}\r\n                <h1> You have no bootables that are unavailable</h1>\r\n                {{else:}}\r\n\r\n                {{for project in not_available_projects:}}\r\n                    <div class="row">\r\n                        {{include "subviews\\displayProjectInformation"}}\r\n                        <div class="span3">\r\n                            <a href="{{=URL(\'profile\',\'view_project\', args=project.id)}}"><button class="btn btn-inverse btn-block" type="button">View/Edit</button> </a>\r\n                            <br>\r\n                            <a href="{{=URL(\'profile\',\'confirm_open_for_pledges\', args=project.id)}}"><button class="btn btn-info btn-block" type="button">Open bootable for pledges</button> </a>\r\n                            <br>\r\n                            <a href="{{=URL(\'profile\',\'rewards\', args=project.id)}}"><button class="btn btn-block btn-primary" type="button">View/Add Rewards</button></a>\r\n                            <br>\r\n\r\n                            {{=A(BUTTON(\'Delete\',_class="btn btn-danger"), callback= URL(\'delete_project\', vars= dict(project_id = project.id) ))}}\r\n\r\n                        </div>\r\n                    </div>\r\n                    <hr>\r\n                {{pass}}\r\n                {{pass}}\r\n\r\n\r\n\r\n            </div>\r\n            <div class="tab-pane" id="tab3">\r\n\r\n                 {{if len(funded_projects) == 0:}}\r\n                <h1> You have no funded bootables</h1>\r\n                {{else:}}\r\n\r\n                {{for project in funded_projects:}}\r\n                    <div class="row">\r\n                        <div class="span3"> <img width="100%" class="img-rounded" src="{{=URL(\'default\',\'download\',args = project.image)}}"/></div>\r\n                        <div class="span4">\r\n\r\n                            <h3>{{=project.title}} </h3>\r\n                            <h2> <small> Funding Goal is </small>  \xc2\xa3 {{=int(project.funding_target)}} </h2>\r\n                            <h2> <small>Category is </small>  {{=project.category}} </h2>\r\n                            <h2> <small>Amount raised is </small>  \xc2\xa3 {{=int(project.funding_raised)}} </h2>\r\n\r\n                        </div>\r\n                        <div class="span3">\r\n                            <button class="btn btn-inverse btn-block" type="button">View Bootable Page</button>\r\n\r\n                        </div>\r\n                    </div>\r\n                    <hr>\r\n                {{pass}}\r\n                {{pass}}\r\n\r\n\r\n\r\n\r\n            </div>\r\n            <div class="tab-pane" id="tab4">\r\n\r\n                 {{if len(not_funded_projects) == 0:}}\r\n                <h1> You have no bootables that finished unfunded</h1>\r\n                {{else:}}\r\n\r\n                 {{for project in not_funded_projects:}}\r\n                    <div class="row">\r\n                        <div class="span3"> <img width="100%" class="img-rounded" src="{{=URL(\'default\',\'download\',args = project.image)}}"/></div>\r\n                        <div class="span4">\r\n\r\n                            <h3>{{=project.title}} </h3>\r\n                            <h2> <small> Funding Goal is </small>  \xc2\xa3 {{=int(project.funding_target)}} </h2>\r\n                            <h2> <small>Category is </small>  {{=project.category}} </h2>\r\n                            <h2> <small>Amount raised is </small>  \xc2\xa3 {{=int(project.funding_raised)}} </h2>\r\n\r\n                        </div>\r\n                        <div class="span3">\r\n                            <button class="btn btn-inverse btn-block" type="button">View Bootable Page</button>\r\n                             <br>\r\n                            <a href="{{=URL(\'profile\',\'confirm_open_for_pledges\', args=project.id)}}"><button class="btn btn-block btn-info" type="button">Open bootable for Pledges</button></a>\r\n\r\n                        </div>\r\n                    </div>\r\n                    <hr>\r\n                {{pass}}\r\n                {{pass}}\r\n\r\n\r\n            </div>\r\n        </div>\r\n    </div>\r\n</div>\r\n\r\n\r\n\r\n'
p7
sS'snapshot'
p8
(dp9
S'exception'
p10
(dp11
S'__getslice__'
p12
S"<method-wrapper '__getslice__' of exceptions.IOError object>"
p13
sS'__str__'
p14
S"<method-wrapper '__str__' of exceptions.IOError object>"
p15
sS'__reduce__'
p16
S'<built-in method __reduce__ of exceptions.IOError object>'
p17
sS'__dict__'
p18
S'{}'
p19
sS'__sizeof__'
p20
S'<built-in method __sizeof__ of exceptions.IOError object>'
p21
sS'__init__'
p22
S"<method-wrapper '__init__' of exceptions.IOError object>"
p23
sS'__setattr__'
p24
S"<method-wrapper '__setattr__' of exceptions.IOError object>"
p25
sS'__reduce_ex__'
p26
S'<built-in method __reduce_ex__ of exceptions.IOError object>'
p27
sS'__new__'
p28
S'<built-in method __new__ of type object>'
p29
sS'errno'
p30
S'2'
sS'__format__'
p31
S'<built-in method __format__ of exceptions.IOError object>'
p32
sS'__class__'
p33
S"<type 'exceptions.IOError'>"
p34
sS'filename'
p35
S"r'C:\\Web2Py\\web2py_win\\web2py\\applications\\BootUp\\views\\subviews\\displayProjectInformation'"
p36
sS'__doc__'
p37
S"'I/O operation failed.'"
p38
sS'__getitem__'
p39
S"<method-wrapper '__getitem__' of exceptions.IOError object>"
p40
sS'__setstate__'
p41
S'<built-in method __setstate__ of exceptions.IOError object>'
p42
sS'__getattribute__'
p43
S"<method-wrapper '__getattribute__' of exceptions.IOError object>"
p44
sS'args'
p45
S"(2, 'No such file or directory')"
p46
sS'__subclasshook__'
p47
S'<built-in method __subclasshook__ of type object>'
p48
sS'__unicode__'
p49
S'<built-in method __unicode__ of exceptions.IOError object>'
p50
sS'strerror'
p51
S"'No such file or directory'"
p52
sS'__delattr__'
p53
S"<method-wrapper '__delattr__' of exceptions.IOError object>"
p54
sS'__repr__'
p55
S"<method-wrapper '__repr__' of exceptions.IOError object>"
p56
sS'__hash__'
p57
S"<method-wrapper '__hash__' of exceptions.IOError object>"
p58
ssS'evalue'
p59
S"[Errno 2] No such file or directory: 'C:\\\\Web2Py\\\\web2py_win\\\\web2py\\\\applications\\\\BootUp\\\\views\\\\subviews\\\\displayProjectInformation'"
p60
sS'frames'
p61
(lp62
(dp63
S'file'
p64
S'C:\\Web2Py\\web2py_win\\web2py\\gluon\\template.py'
p65
sS'dump'
p66
(dp67
sS'lnum'
p68
I450
sS'lines'
p69
(dp70
sS'call'
p71
S"(self=<gluon.template.TemplateParser object>, filename=r'subviews\\displayProjectInformation')"
p72
sS'func'
p73
S'_get_file_text'
p74
sasS'pyver'
p75
S'Python 2.7.6: C:\\Web2Py\\web2py_win\\web2py\\web2py.exe (prefix: )'
p76
sS'etype'
p77
S"<type 'exceptions.IOError'>"
p78
sS'date'
p79
S'Sat Nov 29 12:38:56 2014'
p80
sS'locals'
p81
(dp82
S'self'
p83
S'<gluon.template.TemplateParser object>'
p84
sS'filepath'
p85
S"r'C:\\Web2Py\\web2py_win\\web2py\\applications\\BootUp\\views\\subviews\\displayProjectInformation'"
p86
sS'context'
p87
S"{'A': <class 'gluon.html.A'>, 'ANY_OF': <class 'gluon.validators.ANY_OF'>, 'ASSIGNJS': <function ASSIGNJS>, 'Auth': <class 'gluon.tools.Auth'>, 'B': <class 'gluon.html.B'>, 'BEAUTIFY': <class 'gluon.html.BEAUTIFY'>, 'BODY': <class 'gluon.html.BODY'>, 'BR': <class 'gluon.html.BR'>, 'BUTTON': <class 'gluon.html.BUTTON'>, 'CAT': <class 'gluon.html.CAT'>, ...}"
p88
sg35
S"r'subviews\\displayProjectInformation'"
p89
sssS'traceback'
p90
S'Traceback (most recent call last):\n  File "gluon/template.py", line 450, in _get_file_text\nIOError: [Errno 2] No such file or directory: \'C:\\\\Web2Py\\\\web2py_win\\\\web2py\\\\applications\\\\BootUp\\\\views\\\\subviews\\\\displayProjectInformation\'\n'
p91
s.