(dp1
S'output'
p2
S"<type 'exceptions.IndexError'> list index out of range"
p3
sS'layer'
p4
S'/usr/userfs/r/rs1019/iapt/web2py/applications/BootUp/views/default/index.html'
p5
sS'code'
p6
S'response.write(\'<!DOCTYPE html>\\n<head>\\n\\t<title>BootUp</title>\\n\\t<meta charset=\\\'utf-8\\\' />\\n    <link rel=\\\'stylesheet\\\' type=\\\'text/css\\\' href="\', escape=False)\nresponse.write(URL(\'static\',\'css/bootupStyle.css\'))\nresponse.write(\' " media="screen" />\\n    <link rel=\\\'stylesheet\\\' type=\\\'text/css\\\' href="\', escape=False)\nresponse.write(URL(\'static\',\'css/bootstrap.min.css\'))\nresponse.write(\' " media="screen" />\\n    <link rel=\\\'stylesheet\\\' type=\\\'text/css\\\' href="\', escape=False)\nresponse.write(URL(\'static\',\'css/bootstrap-responsive.min.css\'))\nresponse.write(\' " media="screen" />\\n    <link rel=\\\'stylesheet\\\' type=\\\'text/css\\\' href="\', escape=False)\nresponse.write(URL(\'static\',\'css/web2py_bootstrap.css\'))\nresponse.write(\' " media="screen" />\\n    <link href=\\\'http://fonts.googleapis.com/css?family=Montserrat\\\' rel=\\\'stylesheet\\\' type=\\\'text/css\\\'>\\n    <link href=\\\'http://fonts.googleapis.com/css?family=Josefin+Sans\\\' rel=\\\'stylesheet\\\' type=\\\'text/css\\\'>\\n    <script src="\', escape=False)\nresponse.write(URL(\'static\',\'js/modernizr.custom.js\'))\nresponse.write(\'"></script>\\n    \', escape=False)\nresponse.write(\'<script type="text/javascript"><!--\\n    // These variables are used by the web2py_ajax_init function in web2py_ajax.js (which is loaded below).\\n    var w2p_ajax_confirm_message = "\', escape=False)\nresponse.write(T(\'Are you sure you want to delete this object?\'))\nresponse.write(\'";\\n    var w2p_ajax_disable_with_message = "\', escape=False)\nresponse.write(T(\'Working...\'))\nresponse.write(\'";\\n    var w2p_ajax_date_format = "\', escape=False)\nresponse.write(T(\'%d/%m/%Y\'))\nresponse.write(\'";\\n    var w2p_ajax_datetime_format = "\', escape=False)\nresponse.write(T(\'%Y-%m-%d %H:%M:%S\'))\nresponse.write(\'";\\n    var ajax_error_500 = \\\'\', escape=False)\nresponse.write(T.M(\'An error occured, please [[reload %s]] the page\') % URL(args=request.args, vars=request.get_vars))\nresponse.write("\'\\n    //--></script>\\n", escape=False)\nresponse.files.insert(0,URL(\'static\',\'js/jquery.js\'))\nresponse.files.insert(1,URL(\'static\',\'css/calendar.css\'))\nresponse.files.insert(2,URL(\'static\',\'js/calendar.js\'))\nresponse.files.insert(3,URL(\'static\',\'js/web2py.js\'))\nresponse.include_meta()\nresponse.include_files()\nresponse.write(\'\\n\', escape=False)\nresponse.write(\'\\n    <script type="text/javascript" src="\', escape=False)\nresponse.write(URL(\'static\',\'js/bootstrap.min.js\'))\nresponse.write(\'"></script>\\n    <script type="text/javascript" src="\', escape=False)\nresponse.write(URL(\'static\',\'js/bootup.js\'))\nresponse.write(\'"></script>\\n    <script type="text/javascript" src="\', escape=False)\nresponse.write(URL(\'static\',\'js/web2py.js\'))\nresponse.write(\'"></script>\\n\\n</head>\\n<body>\\n\\n\\n    <div class="container main ">\\n        <div class="row">\\n            <div class="navbar navbar-fixed-top navbar-inverse">\\n                <div class="navbar-inner">\\n                    <div class="container">\\n                         <a class="btn btn-navbar" data-toggle="collapse" data-target=".nav-collapse">\\n                                <span class="icon-bar"></span>\\n                                <span class="icon-bar"></span>\\n                                <span class="icon-bar"></span>\\n                         </a>\\n                        <a href="\', escape=False)\nresponse.write(URL(\'default\',\'index\'))\nresponse.write(\'" class="brand"> <img height="30px" width= "85px" src="\', escape=False)\nresponse.write(URL(\'static\',\'images/logo.png\'))\nresponse.write(\'" /> </a>\\n\\n                        <div class="nav-collapse collapse">\\n\\n                             <ul class="nav">\\n                                <li class="divider-vertical"></li>\\n                                <li> <a href="\', escape=False)\nresponse.write(URL(\'projects\',\'explore_projects\'))\nresponse.write(\'"> Explore Bootables </a> </li>\\n                                <li class="divider-vertical"></li>\\n                                <li>  <form action="\', escape=False)\nresponse.write(URL(\'projects\',\'search\'))\nresponse.write(\'" class="navbar-search ">\\n                                        <input type="text" name="search" maxlength="50" class="span4 search-query" placeholder="Search">\\n                                      </form>\\n\\n                                </li>\\n\\n\\n                            </ul>\\n\\n                            <ul class="nav pull-right ">\\n\\n                                \', escape=False)\nif (auth.is_logged_in()):\n    response.write(\'\\n                                <li class="divider-vertical"></li>\\n                                <li> <a href="\', escape=False)\n    response.write(URL(\'profile\',\'create\'))\n    response.write(\' "> Create Bootables</a></li>\\n\\n\\n\\n                                <li class="dropdown">\\n                                    <a href="#" class="dropdown-toggle" data-toggle="dropdown">\\n                                      Profile\\n                                      <b class="caret"></b>\\n                                    </a>\\n                                    <ul class="dropdown-menu nav-list">\\n                                        <li> <a href="\', escape=False)\n    response.write(URL(\'profile\',\'profile\'))\n    response.write(\' "> Profile</a></li>\\n                                        <li> <a href="\', escape=False)\n    response.write(URL(\'profile\',\'projects\'))\n    response.write(\' "> Bootable Manager Dashboard</a></li>\\n                                        <li> <a href="\', escape=False)\n    response.write(URL(\'profile\',\'pledges\'))\n    response.write(\' "> Your Pledges</a></li>\\n                                        <li> <a href="\', escape=False)\n    response.write(URL(\'profile\',\'information\'))\n    response.write(\' "> Your Information</a></li>\\n                                        <hr>\\n                                        <li> <a href="\', escape=False)\n    response.write(URL(\'default\',\'user/logout\'))\n    response.write(\' "> Logout</a></li>\\n                                    </ul>\\n                                </li>\\n\\n                                \', escape=False)\nelse:\n    response.write(\'\\n                                <li class="divider-vertical"></li>\\n                                <li> <a href="\', escape=False)\n    response.write(URL(\'default\',\'login\'))\n    response.write(\' "> Login</a></li>\\n                                <li class="divider-vertical"></li>\\n                                <li> <a href="\', escape=False)\n    response.write(URL(\'default\',\'register\'))\n    response.write(\' "> Register</a></li>\\n\\n\\n                                \', escape=False)\n    pass\nresponse.write(\'\\n\\n                            </ul>\\n\\n                        </div>\\n\\n\\n                    </div>\\n                </div>\\n            </div>\\n\\n        </div>\\n\\n        <div class="after-nav">\\n\\n\\n\\n        \', escape=False)\nresponse.write(\'\\n\\n\\n <div class="row below-nav hidden-phone" />\\n            <div id="myCarousel" class="carousel slide">\\n                <ol class="carousel-indicators">\\n                    <li data-target="#myCarousel" data-slide-to="0" class="active"></li>\\n                    <li data-target="#myCarousel" data-slide-to="1"></li>\\n                    <li data-target="#myCarousel" data-slide-to="2"></li>\\n                </ol>\\n                  <div class="carousel-inner">\\n                    <div class="item active">\\n                      <img src="\', escape=False)\nresponse.write(URL(\'static\',\'images/slide-01.jpg\'))\nresponse.write(\'" alt="">\\n                      <div class="container">\\n                        <div class="carousel-caption">\\n                          <h1>Example headline.</h1>\\n                          <p class="lead">Cras justo odio, dapibus ac facilisis in, egestas eget quam. Donec id elit non mi porta gravida at eget metus. Nullam id dolor id nibh ultricies vehicula ut id elit.</p>\\n                          <a class="btn btn-large btn-primary" href="#">Sign up today</a>\\n                        </div>\\n                      </div>\\n                    </div>\\n                    <div class="item">\\n                      <img src="\', escape=False)\nresponse.write(URL(\'static\',\'images/slide-02.jpg\'))\nresponse.write(\'" alt="">\\n                      <div class="container">\\n                        <div class="carousel-caption">\\n                          <h1>Another example headline.</h1>\\n                          <p class="lead">Cras justo odio, dapibus ac facilisis in, egestas eget quam. Donec id elit non mi porta gravida at eget metus. Nullam id dolor id nibh ultricies vehicula ut id elit.</p>\\n                          <a class="btn btn-large btn-primary" href="#">Learn more</a>\\n                        </div>\\n                      </div>\\n                    </div>\\n                    <div class="item">\\n                      <img src="\', escape=False)\nresponse.write(URL(\'static\',\'images/slide-03.jpg\'))\nresponse.write(\'" alt="">\\n                      <div class="container">\\n                        <div class="carousel-caption">\\n                          <h1>One more for good measure.</h1>\\n                          <p class="lead">Cras justo odio, dapibus ac facilisis in, egestas eget quam. Donec id elit non mi porta gravida at eget metus. Nullam id dolor id nibh ultricies vehicula ut id elit.</p>\\n                          <a class="btn btn-large btn-primary" href="#">Browse gallery</a>\\n                        </div>\\n                      </div>\\n                    </div>\\n                  </div>\\n                  <a class="left carousel-control" href="#myCarousel" data-slide="prev">&lsaquo;</a>\\n                  <a class="right carousel-control" href="#myCarousel" data-slide="next">&rsaquo;</a>\\n            </div>\\n </div>\\n\\n<div class="row">\\n    <div class="span12">\\n        <h1>Nearly There...</h1>\\n        <hr>\\n    </div>\\n</div>\\n\\n<div class="row">\\n\\n   \', escape=False)\nfor i in xrange(3):\n    response.write(\'\\n        \', escape=False)\n    project = closest_projects_to_being_funded[i]\n    response.write(\'\\n        \', escape=False)\n    response.write(\'<div class="well span3 offset" id="project_small">\\n    <div class="project_small_title_wrapper">\\n        <h4>\\n            <a class="project_small_title" href="\', escape=False)\n    response.write(URL(\'projects\',\'project\', args=project.id))\n    response.write(\'">\', escape=False)\n    response.write(project.title)\n    response.write(\' </a>\\n            <span class="badge badge-info">\', escape=False)\n    response.write(project.category)\n    response.write(\'</span>\\n        </h4>\\n    </div>\\n    <br>\\n    <a href="\', escape=False)\n    response.write(URL(\'projects\',\'project\', args=project.id))\n    response.write(\'"><img width="100%" class="img-rounded" src="\', escape=False)\n    response.write(URL(\'default\',\'download\',args = project.image))\n    response.write(\'"/> </a>\\n    <div class="project_small_description_wrapper">\\n        \', escape=False)\n    response.write(project.short_description)\n    response.write(\'\\n    </div>\\n    <h5> Left to fund: \\xc2\\xa3 \', escape=False)\n    response.write(int(project.funding_target - project.funding_raised))\n    response.write(\'</h5>\\n    \', escape=False)\n    percentage_completed = int((project.funding_raised / project.funding_target)*100)\n    response.write(\'\\n    <div class="progress">\\n            <div class="bar bar-info" style="width:\', escape=False)\n    response.write(percentage_completed)\n    response.write(\'%;"></div>\\n    </div>\\n    <a href="\', escape=False)\n    response.write(URL(\'projects\',\'project\', args=project.id))\n    response.write(\'"><button class="btn btn-block btn-primary" type="button">Visit</button> </a>\\n\\n</div>\', escape=False)\n    response.write(\'\\n    \', escape=False)\n    pass\nresponse.write(\'\\n\\n</div>\\n\\n<div class="row">\\n     \', escape=False)\nfor i in xrange(3,6):\n    response.write(\'\\n        \', escape=False)\n    project = closest_projects_to_being_funded[i]\n    response.write(\'\\n       \', escape=False)\n    response.write(\'<div class="well span3 offset" id="project_small">\\n    <div class="project_small_title_wrapper">\\n        <h4>\\n            <a class="project_small_title" href="\', escape=False)\n    response.write(URL(\'projects\',\'project\', args=project.id))\n    response.write(\'">\', escape=False)\n    response.write(project.title)\n    response.write(\' </a>\\n            <span class="badge badge-info">\', escape=False)\n    response.write(project.category)\n    response.write(\'</span>\\n        </h4>\\n    </div>\\n    <br>\\n    <a href="\', escape=False)\n    response.write(URL(\'projects\',\'project\', args=project.id))\n    response.write(\'"><img width="100%" class="img-rounded" src="\', escape=False)\n    response.write(URL(\'default\',\'download\',args = project.image))\n    response.write(\'"/> </a>\\n    <div class="project_small_description_wrapper">\\n        \', escape=False)\n    response.write(project.short_description)\n    response.write(\'\\n    </div>\\n    <h5> Left to fund: \\xc2\\xa3 \', escape=False)\n    response.write(int(project.funding_target - project.funding_raised))\n    response.write(\'</h5>\\n    \', escape=False)\n    percentage_completed = int((project.funding_raised / project.funding_target)*100)\n    response.write(\'\\n    <div class="progress">\\n            <div class="bar bar-info" style="width:\', escape=False)\n    response.write(percentage_completed)\n    response.write(\'%;"></div>\\n    </div>\\n    <a href="\', escape=False)\n    response.write(URL(\'projects\',\'project\', args=project.id))\n    response.write(\'"><button class="btn btn-block btn-primary" type="button">Visit</button> </a>\\n\\n</div>\', escape=False)\n    response.write(\'\\n    \', escape=False)\n    pass\nresponse.write(\'\\n\\n</div>\\n\\n\\n<div class="row">\\n    <div class="span12">\\n        <h1>Recently Created</h1>\\n        <hr>\\n    </div>\\n</div>\\n\\n<div class="row">\\n\\n   \', escape=False)\nfor i in xrange(3):\n    response.write(\'\\n        \', escape=False)\n    project = newest_projects[i]\n    response.write(\'\\n        \', escape=False)\n    response.write(\'<div class="well span3 offset" id="project_small">\\n    <div class="project_small_title_wrapper">\\n        <h4>\\n            <a class="project_small_title" href="\', escape=False)\n    response.write(URL(\'projects\',\'project\', args=project.id))\n    response.write(\'">\', escape=False)\n    response.write(project.title)\n    response.write(\' </a>\\n            <span class="badge badge-info">\', escape=False)\n    response.write(project.category)\n    response.write(\'</span>\\n        </h4>\\n    </div>\\n    <br>\\n    <a href="\', escape=False)\n    response.write(URL(\'projects\',\'project\', args=project.id))\n    response.write(\'"><img width="100%" class="img-rounded" src="\', escape=False)\n    response.write(URL(\'default\',\'download\',args = project.image))\n    response.write(\'"/> </a>\\n    <div class="project_small_description_wrapper">\\n        \', escape=False)\n    response.write(project.short_description)\n    response.write(\'\\n    </div>\\n    <h5> Left to fund: \\xc2\\xa3 \', escape=False)\n    response.write(int(project.funding_target - project.funding_raised))\n    response.write(\'</h5>\\n    \', escape=False)\n    percentage_completed = int((project.funding_raised / project.funding_target)*100)\n    response.write(\'\\n    <div class="progress">\\n            <div class="bar bar-info" style="width:\', escape=False)\n    response.write(percentage_completed)\n    response.write(\'%;"></div>\\n    </div>\\n    <a href="\', escape=False)\n    response.write(URL(\'projects\',\'project\', args=project.id))\n    response.write(\'"><button class="btn btn-block btn-primary" type="button">Visit</button> </a>\\n\\n</div>\', escape=False)\n    response.write(\'\\n    \', escape=False)\n    pass\nresponse.write(\'\\n\\n</div>\\n\\n<div class="row">\\n     \', escape=False)\nfor i in xrange(3,6):\n    response.write(\'\\n        \', escape=False)\n    project = newest_projects[i]\n    response.write(\'\\n        \', escape=False)\n    response.write(\'<div class="well span3 offset" id="project_small">\\n    <div class="project_small_title_wrapper">\\n        <h4>\\n            <a class="project_small_title" href="\', escape=False)\n    response.write(URL(\'projects\',\'project\', args=project.id))\n    response.write(\'">\', escape=False)\n    response.write(project.title)\n    response.write(\' </a>\\n            <span class="badge badge-info">\', escape=False)\n    response.write(project.category)\n    response.write(\'</span>\\n        </h4>\\n    </div>\\n    <br>\\n    <a href="\', escape=False)\n    response.write(URL(\'projects\',\'project\', args=project.id))\n    response.write(\'"><img width="100%" class="img-rounded" src="\', escape=False)\n    response.write(URL(\'default\',\'download\',args = project.image))\n    response.write(\'"/> </a>\\n    <div class="project_small_description_wrapper">\\n        \', escape=False)\n    response.write(project.short_description)\n    response.write(\'\\n    </div>\\n    <h5> Left to fund: \\xc2\\xa3 \', escape=False)\n    response.write(int(project.funding_target - project.funding_raised))\n    response.write(\'</h5>\\n    \', escape=False)\n    percentage_completed = int((project.funding_raised / project.funding_target)*100)\n    response.write(\'\\n    <div class="progress">\\n            <div class="bar bar-info" style="width:\', escape=False)\n    response.write(percentage_completed)\n    response.write(\'%;"></div>\\n    </div>\\n    <a href="\', escape=False)\n    response.write(URL(\'projects\',\'project\', args=project.id))\n    response.write(\'"><button class="btn btn-block btn-primary" type="button">Visit</button> </a>\\n\\n</div>\', escape=False)\n    response.write(\'\\n    \', escape=False)\n    pass\nresponse.write("\\n\\n</div>\\n\\n\\n\\n\\n\\n\\n\\n\\n\\n\\n\\n\\n\\n\\n\\n\\n\\n\\n <script>\\n      !function ($) {\\n        $(function(){\\n          // carousel demo\\n          $(\'#myCarousel\').carousel()\\n        })\\n      }(window.jQuery)\\n </script>", escape=False)\nresponse.write(\'\\n        \', escape=False)\npass\nresponse.write(\'\\n\\n        </div>\\n\\n\\n\\n    </div>\\n<!--\\n<div class="footer navbar navbar-fixed-bottom">\\n            <p>Copyright (c) 2008</p>\\n    </div>\\n-->\\n\\n\\n\\n\\n\\n</body>\\n\\n</html>\', escape=False)'
p7
sS'snapshot'
p8
(dp9
S'exception'
p10
(dp11
S'__hash__'
p12
S"<method-wrapper '__hash__' of exceptions.IndexError object>"
p13
sS'__setattr__'
p14
S"<method-wrapper '__setattr__' of exceptions.IndexError object>"
p15
sS'__reduce_ex__'
p16
S'<built-in method __reduce_ex__ of exceptions.IndexError object>'
p17
sS'__getslice__'
p18
S"<method-wrapper '__getslice__' of exceptions.IndexError object>"
p19
sS'__getitem__'
p20
S"<method-wrapper '__getitem__' of exceptions.IndexError object>"
p21
sS'__setstate__'
p22
S'<built-in method __setstate__ of exceptions.IndexError object>'
p23
sS'args'
p24
S"('list index out of range',)"
p25
sS'__reduce__'
p26
S'<built-in method __reduce__ of exceptions.IndexError object>'
p27
sS'__str__'
p28
S"<method-wrapper '__str__' of exceptions.IndexError object>"
p29
sS'__format__'
p30
S'<built-in method __format__ of exceptions.IndexError object>'
p31
sS'__getattribute__'
p32
S"<method-wrapper '__getattribute__' of exceptions.IndexError object>"
p33
sS'__class__'
p34
S"<type 'exceptions.IndexError'>"
p35
sS'__unicode__'
p36
S'<built-in method __unicode__ of exceptions.IndexError object>'
p37
sS'__delattr__'
p38
S"<method-wrapper '__delattr__' of exceptions.IndexError object>"
p39
sS'__subclasshook__'
p40
S'<built-in method __subclasshook__ of type object>'
p41
sS'__repr__'
p42
S"<method-wrapper '__repr__' of exceptions.IndexError object>"
p43
sS'__dict__'
p44
S'{}'
p45
sS'__sizeof__'
p46
S'<built-in method __sizeof__ of exceptions.IndexError object>'
p47
sS'__doc__'
p48
S"'Sequence index out of range.'"
p49
sS'__init__'
p50
S"<method-wrapper '__init__' of exceptions.IndexError object>"
p51
sS'__new__'
p52
S'<built-in method __new__ of type object>'
p53
ssS'evalue'
p54
S'list index out of range'
p55
sS'request'
p56
cgluon.html
XML_unpickle
p57
(S'sG]\x00\x00<div><table><tr><td style="font-weight:bold;vertical-align:top;">ajax</td><td style="vertical-align:top;">:</td><td><div>False</div></td></tr><tr><td style="font-weight:bold;vertical-align:top;">application</td><td style="vertical-align:top;">:</td><td><div>BootUp</div></td></tr><tr><td style="font-weight:bold;vertical-align:top;">args</td><td style="vertical-align:top;">:</td><td><div><table></table></div></td></tr><tr><td style="font-weight:bold;vertical-align:top;">cid</td><td style="vertical-align:top;">:</td><td><div>None</div></td></tr><tr><td style="font-weight:bold;vertical-align:top;">client</td><td style="vertical-align:top;">:</td><td><div>127.0.0.1</div></td></tr><tr><td style="font-weight:bold;vertical-align:top;">controller</td><td style="vertical-align:top;">:</td><td><div>default</div></td></tr><tr><td style="font-weight:bold;vertical-align:top;">cookies</td><td style="vertical-align:top;">:</td><td><div><table><tr><td style="font-weight:bold;vertical-align:top;">session_id_admin</td><td style="vertical-align:top;">:</td><td><div>127.0.0.1-1052d2a3-1bb2-405a-841e-6be87d86034e<table><tr><td style="font-weight:bold;vertical-align:top;">comment</td><td style="vertical-align:top;">:</td><td><div></div></td></tr><tr><td style="font-weight:bold;vertical-align:top;">domain</td><td style="vertical-align:top;">:</td><td><div></div></td></tr><tr><td style="font-weight:bold;vertical-align:top;">expires</td><td style="vertical-align:top;">:</td><td><div></div></td></tr><tr><td style="font-weight:bold;vertical-align:top;">httponly</td><td style="vertical-align:top;">:</td><td><div></div></td></tr><tr><td style="font-weight:bold;vertical-align:top;">max-age</td><td style="vertical-align:top;">:</td><td><div></div></td></tr><tr><td style="font-weight:bold;vertical-align:top;">path</td><td style="vertical-align:top;">:</td><td><div></div></td></tr><tr><td style="font-weight:bold;vertical-align:top;">secure</td><td style="vertical-align:top;">:</td><td><div></div></td></tr><tr><td style="font-weight:bold;vertical-align:top;">version</td><td style="vertical-align:top;">:</td><td><div></div></td></tr></table></div></td></tr><tr><td style="font-weight:bold;vertical-align:top;">session_id_bootup</td><td style="vertical-align:top;">:</td><td><div>127.0.0.1-42c17e25-bbe8-434f-b00b-8cb3b7fc3fc1<table><tr><td style="font-weight:bold;vertical-align:top;">comment</td><td style="vertical-align:top;">:</td><td><div></div></td></tr><tr><td style="font-weight:bold;vertical-align:top;">domain</td><td style="vertical-align:top;">:</td><td><div></div></td></tr><tr><td style="font-weight:bold;vertical-align:top;">expires</td><td style="vertical-align:top;">:</td><td><div></div></td></tr><tr><td style="font-weight:bold;vertical-align:top;">httponly</td><td style="vertical-align:top;">:</td><td><div></div></td></tr><tr><td style="font-weight:bold;vertical-align:top;">max-age</td><td style="vertical-align:top;">:</td><td><div></div></td></tr><tr><td style="font-weight:bold;vertical-align:top;">path</td><td style="vertical-align:top;">:</td><td><div></div></td></tr><tr><td style="font-weight:bold;vertical-align:top;">secure</td><td style="vertical-align:top;">:</td><td><div></div></td></tr><tr><td style="font-weight:bold;vertical-align:top;">version</td><td style="vertical-align:top;">:</td><td><div></div></td></tr></table></div></td></tr><tr><td style="font-weight:bold;vertical-align:top;">session_id_welcome</td><td style="vertical-align:top;">:</td><td><div>127.0.0.1-83171af2-d294-43e2-b8e7-de094b568bdd<table><tr><td style="font-weight:bold;vertical-align:top;">comment</td><td style="vertical-align:top;">:</td><td><div></div></td></tr><tr><td style="font-weight:bold;vertical-align:top;">domain</td><td style="vertical-align:top;">:</td><td><div></div></td></tr><tr><td style="font-weight:bold;vertical-align:top;">expires</td><td style="vertical-align:top;">:</td><td><div></div></td></tr><tr><td style="font-weight:bold;vertical-align:top;">httponly</td><td style="vertical-align:top;">:</td><td><div></div></td></tr><tr><td style="font-weight:bold;vertical-align:top;">max-age</td><td style="vertical-align:top;">:</td><td><div></div></td></tr><tr><td style="font-weight:bold;vertical-align:top;">path</td><td style="vertical-align:top;">:</td><td><div></div></td></tr><tr><td style="font-weight:bold;vertical-align:top;">secure</td><td style="vertical-align:top;">:</td><td><div></div></td></tr><tr><td style="font-weight:bold;vertical-align:top;">version</td><td style="vertical-align:top;">:</td><td><div></div></td></tr></table></div></td></tr></table></div></td></tr><tr><td style="font-weight:bold;vertical-align:top;">env</td><td style="vertical-align:top;">:</td><td><div><table><tr><td style="font-weight:bold;vertical-align:top;">HTTP_ACCEPT</td><td style="vertical-align:top;">:</td><td><div>text/html,application/xhtml+xml,application/xml;q=0.9,image/webp,*/*;q=0.8</div></td></tr><tr><td style="font-weight:bold;vertical-align:top;">HTTP_ACCEPT_ENCODING</td><td style="vertical-align:top;">:</td><td><div>gzip, deflate, sdch</div></td></tr><tr><td style="font-weight:bold;vertical-align:top;">HTTP_ACCEPT_LANGUAGE</td><td style="vertical-align:top;">:</td><td><div>en-GB,en-US;q=0.8,en;q=0.6</div></td></tr><tr><td style="font-weight:bold;vertical-align:top;">HTTP_CACHE_CONTROL</td><td style="vertical-align:top;">:</td><td><div>max-age=0</div></td></tr><tr><td style="font-weight:bold;vertical-align:top;">HTTP_CONNECTION</td><td style="vertical-align:top;">:</td><td><div>keep-alive</div></td></tr><tr><td style="font-weight:bold;vertical-align:top;">HTTP_COOKIE</td><td style="vertical-align:top;">:</td><td><div>session_id_welcome=127.0.0.1-83171af2-d294-43e2-b8e7-de094b568bdd; session_id_admin=127.0.0.1-1052d2a3-1bb2-405a-841e-6be87d86034e; session_id_bootup=127.0.0.1-42c17e25-bbe8-434f-b00b-8cb3b7fc3fc1</div></td></tr><tr><td style="font-weight:bold;vertical-align:top;">HTTP_HOST</td><td style="vertical-align:top;">:</td><td><div>127.0.0.1:8000</div></td></tr><tr><td style="font-weight:bold;vertical-align:top;">HTTP_REFERER</td><td style="vertical-align:top;">:</td><td><div>http://127.0.0.1:8000/BootUp/profile/projects</div></td></tr><tr><td style="font-weight:bold;vertical-align:top;">HTTP_USER_AGENT</td><td style="vertical-align:top;">:</td><td><div>Mozilla/5.0 (X11; Linux x86_64) AppleWebKit/537.36 (KHTML, like Gecko) Chrome/39.0.2171.71 Safari/537.36</div></td></tr><tr><td style="font-weight:bold;vertical-align:top;">PATH_INFO</td><td style="vertical-align:top;">:</td><td><div>/BootUp/default/index</div></td></tr><tr><td style="font-weight:bold;vertical-align:top;">QUERY_STRING</td><td style="vertical-align:top;">:</td><td><div></div></td></tr><tr><td style="font-weight:bold;vertical-align:top;">REMOTE_ADDR</td><td style="vertical-align:top;">:</td><td><div>127.0.0.1</div></td></tr><tr><td style="font-weight:bold;vertical-align:top;">REMOTE_PORT</td><td style="vertical-align:top;">:</td><td><div>57415</div></td></tr><tr><td style="font-weight:bold;vertical-align:top;">REQUEST_METHOD</td><td style="vertical-align:top;">:</td><td><div>GET</div></td></tr><tr><td style="font-weight:bold;vertical-align:top;">SCRIPT_NAME</td><td style="vertical-align:top;">:</td><td><div></div></td></tr><tr><td style="font-weight:bold;vertical-align:top;">SERVER_NAME</td><td style="vertical-align:top;">:</td><td><div>pc674s</div></td></tr><tr><td style="font-weight:bold;vertical-align:top;">SERVER_PORT</td><td style="vertical-align:top;">:</td><td><div>8000</div></td></tr><tr><td style="font-weight:bold;vertical-align:top;">SERVER_PROTOCOL</td><td style="vertical-align:top;">:</td><td><div>HTTP/1.1</div></td></tr><tr><td style="font-weight:bold;vertical-align:top;">SERVER_SOFTWARE</td><td style="vertical-align:top;">:</td><td><div>Rocket 1.2.6</div></td></tr><tr><td style="font-weight:bold;vertical-align:top;">app_folders</td><td style="vertical-align:top;">:</td><td><div>set([&#x27;/usr/userfs/r/rs1019/iapt/web2py/applications/admin/&#x27;, &#x27;/usr/userfs/r/rs1019/iapt/web2py/applications/welcome/&#x27;, &#x27;/usr/userfs/r/rs1019/iapt/web2py/applications/BootUp/&#x27;])</div></td></tr><tr><td style="font-weight:bold;vertical-align:top;">applications_parent</td><td style="vertical-align:top;">:</td><td><div>/usr/userfs/r/rs1019/iapt/web2py</div></td></tr><tr><td style="font-weight:bold;vertical-align:top;">cmd_args</td><td style="vertical-align:top;">:</td><td><div><table></table></div></td></tr><tr><td style="font-weight:bold;vertical-align:top;">cmd_options</td><td style="vertical-align:top;">:</td><td><div>&lt;Values at 0x7fd8270583f8: {&#x27;verbose&#x27;: False, &#x27;ip&#x27;: &#x27;127.0.0.1&#x27;, &#x27;debuglevel&#x27;: 30, &#x27;with_scheduler&#x27;: False, &#x27;ips&#x27;: [&#x27;144.32.178.174&#x27;], &#x27;shutdown_timeout&#x27;: 5, &#x27;taskbar&#x27;: False, &#x27;with_coverage&#x27;: False, &#x27;scheduler_groups&#x27;: None, &#x27;port&#x27;: 8000, &#x27;maxthreads&#x27;: None, &#x27;softcron&#x27;: False, &#x27;server_name&#x27;: &#x27;pc674s&#x27;, &#x27;bpython&#x27;: False, &#x27;nogui&#x27;: False, &#x27;pid_filename&#x27;: &#x27;httpserver.pid&#x27;, &#x27;extcron&#x27;: False, &#x27;runcron&#x27;: False, &#x27;run_system_tests&#x27;: False, &#x27;test&#x27;: None, &#x27;folder&#x27;: &#x27;/usr/userfs/r/rs1019/iapt/web2py&#x27;, &#x27;config&#x27;: &#x27;&#x27;, &#x27;minthreads&#x27;: None, &#x27;shell&#x27;: None, &#x27;run&#x27;: &#x27;&#x27;, &#x27;log_filename&#x27;: &#x27;httpserver.log&#x27;, &#x27;profiler_dir&#x27;: None, &#x27;args&#x27;: [&#x27;&#x27;], &#x27;socket_timeout&#x27;: 5, &#x27;ssl_ca_certificate&#x27;: None, &#x27;scheduler&#x27;: None, &#x27;interfaces&#x27;: None, &#x27;ssl_private_key&#x27;: &#x27;&#x27;, &#x27;gae&#x27;: None, &#x27;password&#x27;: &#x27;&lt;ask&gt;&#x27;, &#x27;request_queue_size&#x27;: 5, &#x27;ssl_certificate&#x27;: &#x27;&#x27;, &#x27;cronjob&#x27;: False, &#x27;numthreads&#x27;: None, &#x27;quiet&#x27;: False, &#x27;import_models&#x27;: False, &#x27;timeout&#x27;: 10, &#x27;plain&#x27;: False, &#x27;nobanner&#x27;: False}&gt;</div></td></tr><tr><td style="font-weight:bold;vertical-align:top;">db_sessions</td><td style="vertical-align:top;">:</td><td><div>set([])</div></td></tr><tr><td style="font-weight:bold;vertical-align:top;">debugging</td><td style="vertical-align:top;">:</td><td><div>False</div></td></tr><tr><td style="font-weight:bold;vertical-align:top;">gluon_parent</td><td style="vertical-align:top;">:</td><td><div>/usr/userfs/r/rs1019/iapt/web2py</div></td></tr><tr><td style="font-weight:bold;vertical-align:top;">http_accept</td><td style="vertical-align:top;">:</td><td><div>text/html,application/xhtml+xml,application/xml;q=0.9,image/webp,*/*;q=0.8</div></td></tr><tr><td style="font-weight:bold;vertical-align:top;">http_accept_encoding</td><td style="vertical-align:top;">:</td><td><div>gzip, deflate, sdch</div></td></tr><tr><td style="font-weight:bold;vertical-align:top;">http_accept_language</td><td style="vertical-align:top;">:</td><td><div>en-GB,en-US;q=0.8,en;q=0.6</div></td></tr><tr><td style="font-weight:bold;vertical-align:top;">http_cache_control</td><td style="vertical-align:top;">:</td><td><div>max-age=0</div></td></tr><tr><td style="font-weight:bold;vertical-align:top;">http_connection</td><td style="vertical-align:top;">:</td><td><div>keep-alive</div></td></tr><tr><td style="font-weight:bold;vertical-align:top;">http_cookie</td><td style="vertical-align:top;">:</td><td><div>session_id_welcome=127.0.0.1-83171af2-d294-43e2-b8e7-de094b568bdd; session_id_admin=127.0.0.1-1052d2a3-1bb2-405a-841e-6be87d86034e; session_id_bootup=127.0.0.1-42c17e25-bbe8-434f-b00b-8cb3b7fc3fc1</div></td></tr><tr><td style="font-weight:bold;vertical-align:top;">http_host</td><td style="vertical-align:top;">:</td><td><div>127.0.0.1:8000</div></td></tr><tr><td style="font-weight:bold;vertical-align:top;">http_referer</td><td style="vertical-align:top;">:</td><td><div>http://127.0.0.1:8000/BootUp/profile/projects</div></td></tr><tr><td style="font-weight:bold;vertical-align:top;">http_user_agent</td><td style="vertical-align:top;">:</td><td><div>Mozilla/5.0 (X11; Linux x86_64) AppleWebKit/537.36 (KHTML, like Gecko) Chrome/39.0.2171.71 Safari/537.36</div></td></tr><tr><td style="font-weight:bold;vertical-align:top;">is_jython</td><td style="vertical-align:top;">:</td><td><div>False</div></td></tr><tr><td style="font-weight:bold;vertical-align:top;">is_pypy</td><td style="vertical-align:top;">:</td><td><div>False</div></td></tr><tr><td style="font-weight:bold;vertical-align:top;">is_source</td><td style="vertical-align:top;">:</td><td><div>True</div></td></tr><tr><td style="font-weight:bold;vertical-align:top;">local_hosts</td><td style="vertical-align:top;">:</td><td><div><table><tr><td><div>144.32.178.174</div></td></tr><tr><td><div>::ffff:127.0.0.1</div></td></tr><tr><td><div>::1</div></td></tr><tr><td><div>pc674s.cs.york.ac.uk</div></td></tr><tr><td><div>pc674s</div></td></tr><tr><td><div>127.0.0.1</div></td></tr></table></div></td></tr><tr><td style="font-weight:bold;vertical-align:top;">path_info</td><td style="vertical-align:top;">:</td><td><div>/BootUp/default/index</div></td></tr><tr><td style="font-weight:bold;vertical-align:top;">query_string</td><td style="vertical-align:top;">:</td><td><div></div></td></tr><tr><td style="font-weight:bold;vertical-align:top;">remote_addr</td><td style="vertical-align:top;">:</td><td><div>127.0.0.1</div></td></tr><tr><td style="font-weight:bold;vertical-align:top;">remote_port</td><td style="vertical-align:top;">:</td><td><div>57415</div></td></tr><tr><td style="font-weight:bold;vertical-align:top;">request_method</td><td style="vertical-align:top;">:</td><td><div>GET</div></td></tr><tr><td style="font-weight:bold;vertical-align:top;">request_uri</td><td style="vertical-align:top;">:</td><td><div>/BootUp/default/index</div></td></tr><tr><td style="font-weight:bold;vertical-align:top;">script_name</td><td style="vertical-align:top;">:</td><td><div></div></td></tr><tr><td style="font-weight:bold;vertical-align:top;">server_name</td><td style="vertical-align:top;">:</td><td><div>pc674s</div></td></tr><tr><td style="font-weight:bold;vertical-align:top;">server_port</td><td style="vertical-align:top;">:</td><td><div>8000</div></td></tr><tr><td style="font-weight:bold;vertical-align:top;">server_protocol</td><td style="vertical-align:top;">:</td><td><div>HTTP/1.1</div></td></tr><tr><td style="font-weight:bold;vertical-align:top;">server_software</td><td style="vertical-align:top;">:</td><td><div>Rocket 1.2.6</div></td></tr><tr><td style="font-weight:bold;vertical-align:top;">web2py_path</td><td style="vertical-align:top;">:</td><td><div>/usr/userfs/r/rs1019/iapt/web2py</div></td></tr><tr><td style="font-weight:bold;vertical-align:top;">web2py_version</td><td style="vertical-align:top;">:</td><td><div>2.9.11-stable+timestamp.2014.09.15.23.35.11</div></td></tr><tr><td style="font-weight:bold;vertical-align:top;">wsgi.errors</td><td style="vertical-align:top;">:</td><td><div>&lt;open file &#x27;&lt;stderr&gt;&#x27;, mode &#x27;w&#x27; at 0x7fd82f3a21e0&gt;</div></td></tr><tr><td style="font-weight:bold;vertical-align:top;">wsgi.file_wrapper</td><td style="vertical-align:top;">:</td><td><div>&lt;class wsgiref.util.FileWrapper at 0x7fd8270f0600&gt;</div></td></tr><tr><td style="font-weight:bold;vertical-align:top;">wsgi.input</td><td style="vertical-align:top;">:</td><td><div>&lt;socket._fileobject object at 0x7fd7f1d73950&gt;</div></td></tr><tr><td style="font-weight:bold;vertical-align:top;">wsgi.multiprocess</td><td style="vertical-align:top;">:</td><td><div>False</div></td></tr><tr><td style="font-weight:bold;vertical-align:top;">wsgi.multithread</td><td style="vertical-align:top;">:</td><td><div>True</div></td></tr><tr><td style="font-weight:bold;vertical-align:top;">wsgi.run_once</td><td style="vertical-align:top;">:</td><td><div>False</div></td></tr><tr><td style="font-weight:bold;vertical-align:top;">wsgi.url_scheme</td><td style="vertical-align:top;">:</td><td><div>http</div></td></tr><tr><td style="font-weight:bold;vertical-align:top;">wsgi.version</td><td style="vertical-align:top;">:</td><td><div><table><tr><td><div>1</div></td></tr><tr><td><div>0</div></td></tr></table></div></td></tr><tr><td style="font-weight:bold;vertical-align:top;">wsgi_errors</td><td style="vertical-align:top;">:</td><td><div>&lt;open file &#x27;&lt;stderr&gt;&#x27;, mode &#x27;w&#x27; at 0x7fd82f3a21e0&gt;</div></td></tr><tr><td style="font-weight:bold;vertical-align:top;">wsgi_file_wrapper</td><td style="vertical-align:top;">:</td><td><div>&lt;class wsgiref.util.FileWrapper at 0x7fd8270f0600&gt;</div></td></tr><tr><td style="font-weight:bold;vertical-align:top;">wsgi_input</td><td style="vertical-align:top;">:</td><td><div>&lt;socket._fileobject object at 0x7fd7f1d73950&gt;</div></td></tr><tr><td style="font-weight:bold;vertical-align:top;">wsgi_multiprocess</td><td style="vertical-align:top;">:</td><td><div>False</div></td></tr><tr><td style="font-weight:bold;vertical-align:top;">wsgi_multithread</td><td style="vertical-align:top;">:</td><td><div>True</div></td></tr><tr><td style="font-weight:bold;vertical-align:top;">wsgi_run_once</td><td style="vertical-align:top;">:</td><td><div>False</div></td></tr><tr><td style="font-weight:bold;vertical-align:top;">wsgi_url_scheme</td><td style="vertical-align:top;">:</td><td><div>http</div></td></tr><tr><td style="font-weight:bold;vertical-align:top;">wsgi_version</td><td style="vertical-align:top;">:</td><td><div><table><tr><td><div>1</div></td></tr><tr><td><div>0</div></td></tr></table></div></td></tr></table></div></td></tr><tr><td style="font-weight:bold;vertical-align:top;">extension</td><td style="vertical-align:top;">:</td><td><div>html</div></td></tr><tr><td style="font-weight:bold;vertical-align:top;">folder</td><td style="vertical-align:top;">:</td><td><div>/usr/userfs/r/rs1019/iapt/web2py/applications/BootUp/</div></td></tr><tr><td style="font-weight:bold;vertical-align:top;">function</td><td style="vertical-align:top;">:</td><td><div>index</div></td></tr><tr><td style="font-weight:bold;vertical-align:top;">global_settings</td><td style="vertical-align:top;">:</td><td><div><table><tr><td style="font-weight:bold;vertical-align:top;">app_folders</td><td style="vertical-align:top;">:</td><td><div>set([&#x27;/usr/userfs/r/rs1019/iapt/web2py/applications/admin/&#x27;, &#x27;/usr/userfs/r/rs1019/iapt/web2py/applications/welcome/&#x27;, &#x27;/usr/userfs/r/rs1019/iapt/web2py/applications/BootUp/&#x27;])</div></td></tr><tr><td style="font-weight:bold;vertical-align:top;">applications_parent</td><td style="vertical-align:top;">:</td><td><div>/usr/userfs/r/rs1019/iapt/web2py</div></td></tr><tr><td style="font-weight:bold;vertical-align:top;">cmd_args</td><td style="vertical-align:top;">:</td><td><div><table></table></div></td></tr><tr><td style="font-weight:bold;vertical-align:top;">cmd_options</td><td style="vertical-align:top;">:</td><td><div>&lt;Values at 0x7fd8270583f8: {&#x27;verbose&#x27;: False, &#x27;ip&#x27;: &#x27;127.0.0.1&#x27;, &#x27;debuglevel&#x27;: 30, &#x27;with_scheduler&#x27;: False, &#x27;ips&#x27;: [&#x27;144.32.178.174&#x27;], &#x27;shutdown_timeout&#x27;: 5, &#x27;taskbar&#x27;: False, &#x27;with_coverage&#x27;: False, &#x27;scheduler_groups&#x27;: None, &#x27;port&#x27;: 8000, &#x27;maxthreads&#x27;: None, &#x27;softcron&#x27;: False, &#x27;server_name&#x27;: &#x27;pc674s&#x27;, &#x27;bpython&#x27;: False, &#x27;nogui&#x27;: False, &#x27;pid_filename&#x27;: &#x27;httpserver.pid&#x27;, &#x27;extcron&#x27;: False, &#x27;runcron&#x27;: False, &#x27;run_system_tests&#x27;: False, &#x27;test&#x27;: None, &#x27;folder&#x27;: &#x27;/usr/userfs/r/rs1019/iapt/web2py&#x27;, &#x27;config&#x27;: &#x27;&#x27;, &#x27;minthreads&#x27;: None, &#x27;shell&#x27;: None, &#x27;run&#x27;: &#x27;&#x27;, &#x27;log_filename&#x27;: &#x27;httpserver.log&#x27;, &#x27;profiler_dir&#x27;: None, &#x27;args&#x27;: [&#x27;&#x27;], &#x27;socket_timeout&#x27;: 5, &#x27;ssl_ca_certificate&#x27;: None, &#x27;scheduler&#x27;: None, &#x27;interfaces&#x27;: None, &#x27;ssl_private_key&#x27;: &#x27;&#x27;, &#x27;gae&#x27;: None, &#x27;password&#x27;: &#x27;&lt;ask&gt;&#x27;, &#x27;request_queue_size&#x27;: 5, &#x27;ssl_certificate&#x27;: &#x27;&#x27;, &#x27;cronjob&#x27;: False, &#x27;numthreads&#x27;: None, &#x27;quiet&#x27;: False, &#x27;import_models&#x27;: False, &#x27;timeout&#x27;: 10, &#x27;plain&#x27;: False, &#x27;nobanner&#x27;: False}&gt;</div></td></tr><tr><td style="font-weight:bold;vertical-align:top;">db_sessions</td><td style="vertical-align:top;">:</td><td><div>set([])</div></td></tr><tr><td style="font-weight:bold;vertical-align:top;">debugging</td><td style="vertical-align:top;">:</td><td><div>False</div></td></tr><tr><td style="font-weight:bold;vertical-align:top;">gluon_parent</td><td style="vertical-align:top;">:</td><td><div>/usr/userfs/r/rs1019/iapt/web2py</div></td></tr><tr><td style="font-weight:bold;vertical-align:top;">is_jython</td><td style="vertical-align:top;">:</td><td><div>False</div></td></tr><tr><td style="font-weight:bold;vertical-align:top;">is_pypy</td><td style="vertical-align:top;">:</td><td><div>False</div></td></tr><tr><td style="font-weight:bold;vertical-align:top;">is_source</td><td style="vertical-align:top;">:</td><td><div>True</div></td></tr><tr><td style="font-weight:bold;vertical-align:top;">local_hosts</td><td style="vertical-align:top;">:</td><td><div><table><tr><td><div>144.32.178.174</div></td></tr><tr><td><div>::ffff:127.0.0.1</div></td></tr><tr><td><div>::1</div></td></tr><tr><td><div>pc674s.cs.york.ac.uk</div></td></tr><tr><td><div>pc674s</div></td></tr><tr><td><div>127.0.0.1</div></td></tr></table></div></td></tr><tr><td style="font-weight:bold;vertical-align:top;">web2py_version</td><td style="vertical-align:top;">:</td><td><div>2.9.11-stable+timestamp.2014.09.15.23.35.11</div></td></tr></table></div></td></tr><tr><td style="font-weight:bold;vertical-align:top;">is_https</td><td style="vertical-align:top;">:</td><td><div>False</div></td></tr><tr><td style="font-weight:bold;vertical-align:top;">is_local</td><td style="vertical-align:top;">:</td><td><div>True</div></td></tr><tr><td style="font-weight:bold;vertical-align:top;">is_restful</td><td style="vertical-align:top;">:</td><td><div>False</div></td></tr><tr><td style="font-weight:bold;vertical-align:top;">is_sheduler</td><td style="vertical-align:top;">:</td><td><div>None</div></td></tr><tr><td style="font-weight:bold;vertical-align:top;">is_shell</td><td style="vertical-align:top;">:</td><td><div>None</div></td></tr><tr><td style="font-weight:bold;vertical-align:top;">now</td><td style="vertical-align:top;">:</td><td><div>datetime.datetime(2014, 11, 28, 12, 57, 31, 146092)</div></td></tr><tr><td style="font-weight:bold;vertical-align:top;">raw_args</td><td style="vertical-align:top;">:</td><td><div></div></td></tr><tr><td style="font-weight:bold;vertical-align:top;">raw_extension</td><td style="vertical-align:top;">:</td><td><div>None</div></td></tr><tr><td style="font-weight:bold;vertical-align:top;">url</td><td style="vertical-align:top;">:</td><td><div>/BootUp/default/index</div></td></tr><tr><td style="font-weight:bold;vertical-align:top;">utcnow</td><td style="vertical-align:top;">:</td><td><div>datetime.datetime(2014, 11, 28, 12, 57, 31, 146107)</div></td></tr><tr><td style="font-weight:bold;vertical-align:top;">uuid</td><td style="vertical-align:top;">:</td><td><div>BootUp/127.0.0.1.2014-11-28.12-57-31.20fa166b-ce92-4137-8885-3f88cb0014ba</div></td></tr><tr><td style="font-weight:bold;vertical-align:top;">wsgi</td><td style="vertical-align:top;">:</td><td><div>&lt;gluon.main.LazyWSGI object at 0x7fd7f177d6d0&gt;</div></td></tr></table></div>'
tRp58
sS'frames'
p59
(lp60
(dp61
S'file'
p62
S'/usr/userfs/r/rs1019/iapt/web2py/gluon/restricted.py'
p63
sS'dump'
p64
(dp65
S'environment'
p66
S"{'A': <class 'gluon.html.A'>, 'ANY_OF': <class 'gluon.validators.ANY_OF'>, 'ASSIGNJS': <function ASSIGNJS>, 'Auth': <class 'gluon.tools.Auth'>, 'B': <class 'gluon.html.B'>, 'BEAUTIFY': <class 'gluon.html.BEAUTIFY'>, 'BODY': <class 'gluon.html.BODY'>, 'BR': <class 'gluon.html.BR'>, 'BUTTON': <class 'gluon.html.BUTTON'>, 'CAT': <class 'gluon.html.CAT'>, ...}"
p67
sS'ccode'
p68
S'<code object <module> at 0x7fd7f19204b0, file "/...cations/BootUp/views/default/index.html", line 1>'
p69
ssS'lnum'
p70
I224
sS'lines'
p71
(dp72
I224
S'        exec ccode in environment'
p73
sI225
S'    except HTTP:'
p74
sI226
S'        raise'
p75
sI227
S'    except RestrictedError:'
p76
sI228
S'        # do not encapsulate (obfuscate) the original RestrictedError'
p77
sI219
S'    try:'
p78
sI220
S'        if isinstance(code, types.CodeType):'
p79
sI221
S'            ccode = code'
p80
sI222
S'        else:'
p81
sI223
S'            ccode = compile2(code, layer)'
p82
ssS'call'
p83
S'(code=r"response.write(\'<!DOCTYPE html>\\n<head>\\n\\t<titl...-->\\n\\n\\n\\n\\n\\n</body>\\n\\n</html>\', escape=False)", environment={\'A\': <class \'gluon.html.A\'>, \'ANY_OF\': <class \'gluon.validators.ANY_OF\'>, \'ASSIGNJS\': <function ASSIGNJS>, \'Auth\': <class \'gluon.tools.Auth\'>, \'B\': <class \'gluon.html.B\'>, \'BEAUTIFY\': <class \'gluon.html.BEAUTIFY\'>, \'BODY\': <class \'gluon.html.BODY\'>, \'BR\': <class \'gluon.html.BR\'>, \'BUTTON\': <class \'gluon.html.BUTTON\'>, \'CAT\': <class \'gluon.html.CAT\'>, ...}, layer=\'/usr/userfs/r/rs1019/iapt/web2py/applications/BootUp/views/default/index.html\')'
p84
sS'func'
p85
S'restricted'
p86
sa(dp87
g62
S'/usr/userfs/r/rs1019/iapt/web2py/applications/BootUp/views/default/index.html'
p88
sg64
(dp89
S'hr'
p90
S'undefined'
p91
ssg70
I76
sg71
(dp92
I67
S'response.write(\'\\n\\n\\n <div class="row below-nav hidden-phone" />\\n            <div id="myCarousel" class="carousel slide">\\n                <ol class="carousel-indicators">\\n                    <li data-target="#myCarousel" data-slide-to="0" class="active"></li>\\n                    <li data-target="#myCarousel" data-slide-to="1"></li>\\n                    <li data-target="#myCarousel" data-slide-to="2"></li>\\n                </ol>\\n                  <div class="carousel-inner">\\n                    <div class="item active">\\n                      <img src="\', escape=False)'
p93
sI68
S"response.write(URL('static','images/slide-01.jpg'))"
p94
sI69
S'response.write(\'" alt="">\\n                      <div class="container">\\n                        <div class="carousel-caption">\\n                          <h1>Example headline.</h1>\\n                          <p class="lead">Cras justo odio, dapibus ac facilisis in, egestas eget quam. Donec id elit non mi porta gravida at eget metus. Nullam id dolor id nibh ultricies vehicula ut id elit.</p>\\n                          <a class="btn btn-large btn-primary" href="#">Sign up today</a>\\n                        </div>\\n                      </div>\\n                    </div>\\n                    <div class="item">\\n                      <img src="\', escape=False)'
p95
sI70
S"response.write(URL('static','images/slide-02.jpg'))"
p96
sI71
S'response.write(\'" alt="">\\n                      <div class="container">\\n                        <div class="carousel-caption">\\n                          <h1>Another example headline.</h1>\\n                          <p class="lead">Cras justo odio, dapibus ac facilisis in, egestas eget quam. Donec id elit non mi porta gravida at eget metus. Nullam id dolor id nibh ultricies vehicula ut id elit.</p>\\n                          <a class="btn btn-large btn-primary" href="#">Learn more</a>\\n                        </div>\\n                      </div>\\n                    </div>\\n                    <div class="item">\\n                      <img src="\', escape=False)'
p97
sI72
S"response.write(URL('static','images/slide-03.jpg'))"
p98
sI73
S'response.write(\'" alt="">\\n                      <div class="container">\\n                        <div class="carousel-caption">\\n                          <h1>One more for good measure.</h1>\\n                          <p class="lead">Cras justo odio, dapibus ac facilisis in, egestas eget quam. Donec id elit non mi porta gravida at eget metus. Nullam id dolor id nibh ultricies vehicula ut id elit.</p>\\n                          <a class="btn btn-large btn-primary" href="#">Browse gallery</a>\\n                        </div>\\n                      </div>\\n                    </div>\\n                  </div>\\n                  <a class="left carousel-control" href="#myCarousel" data-slide="prev">&lsaquo;</a>\\n                  <a class="right carousel-control" href="#myCarousel" data-slide="next">&rsaquo;</a>\\n            </div>\\n </div>\\n\\n<div class="row">\\n    <div class="span12">\\n        <h1>Nearly There...</h1>\\n        <hr>\\n    </div>\\n</div>\\n\\n<div class="row">\\n\\n   \', escape=False)'
p99
sI74
S'for i in xrange(3):'
p100
sI75
S"    response.write('\\n        ', escape=False)"
p101
sI76
S'    project = closest_projects_to_being_funded[i]'
p102
sI77
S"    response.write('\\n        ', escape=False)"
p103
sI78
S'    response.write(\'<div class="well span3 offset" id="project_small">\\n    <div class="project_small_title_wrapper">\\n        <h4>\\n            <a class="project_small_title" href="\', escape=False)'
p104
sI79
S"    response.write(URL('projects','project', args=project.id))"
p105
sI80
S'    response.write(\'">\', escape=False)'
p106
sI81
S'    response.write(project.title)'
p107
sI82
S'    response.write(\' </a>\\n            <span class="badge badge-info">\', escape=False)'
p108
sI83
S'    response.write(project.category)'
p109
sI84
S'    response.write(\'</span>\\n        </h4>\\n    </div>\\n    <br>\\n    <a href="\', escape=False)'
p110
sI85
S"    response.write(URL('projects','project', args=project.id))"
p111
sI86
S'    response.write(\'"><img width="100%" class="img-rounded" src="\', escape=False)'
p112
ssg83
S'()'
p113
sg85
S'<module>'
p114
sa(dp115
g62
S'/usr/userfs/r/rs1019/iapt/web2py/gluon/dal.py'
p116
sg64
(dp117
S'i'
S'0'
sS'self'
p118
S'<Rows (0)>'
p119
sS'self.records'
p120
S'[]'
p121
sS'row'
p122
g91
ssg70
I11062
sg71
(dp123
I11057
S''
sI11058
S'    def __getslice__(self, a, b):'
p124
sI11059
S'        return Rows(self.db, self.records[a:b], self.colnames, compact=self.compact)'
p125
sI11060
S''
sI11061
S'    def __getitem__(self, i):'
p126
sI11062
S'        row = self.records[i]'
p127
sI11063
S'        keys = row.keys()'
p128
sI11064
S"        if self.compact and len(keys) == 1 and keys[0] != '_extra':"
p129
sI11065
S'            return row[row.keys()[0]]'
p130
sI11066
S'        return row'
p131
ssg83
S'(self=<Rows (0)>, i=0)'
p132
sg85
g20
sasS'pyver'
p133
S'Python 2.7.6: /usr/bin/python (prefix: /usr)'
p134
sS'session'
p135
g57
(S's\xaa\n\x00\x00<div><table><tr><td style="font-weight:bold;vertical-align:top;">auth</td><td style="vertical-align:top;">:</td><td><div><table><tr><td style="font-weight:bold;vertical-align:top;">expiration</td><td style="vertical-align:top;">:</td><td><div>3600</div></td></tr><tr><td style="font-weight:bold;vertical-align:top;">hmac_key</td><td style="vertical-align:top;">:</td><td><div>5d8876c1-feba-4789-ad58-2864178dbb43</div></td></tr><tr><td style="font-weight:bold;vertical-align:top;">last_visit</td><td style="vertical-align:top;">:</td><td><div>datetime.datetime(2014, 11, 28, 12, 54, 12, 63810)</div></td></tr><tr><td style="font-weight:bold;vertical-align:top;">user</td><td style="vertical-align:top;">:</td><td><div><table><tr><td style="font-weight:bold;vertical-align:top;">address_id</td><td style="vertical-align:top;">:</td><td><div>7L</div></td></tr><tr><td style="font-weight:bold;vertical-align:top;">bank_details_id</td><td style="vertical-align:top;">:</td><td><div>6L</div></td></tr><tr><td style="font-weight:bold;vertical-align:top;">birthdate</td><td style="vertical-align:top;">:</td><td><div>datetime.date(2014, 11, 9)</div></td></tr><tr><td style="font-weight:bold;vertical-align:top;">email</td><td style="vertical-align:top;">:</td><td><div></div></td></tr><tr><td style="font-weight:bold;vertical-align:top;">first_name</td><td style="vertical-align:top;">:</td><td><div>Rory</div></td></tr><tr><td style="font-weight:bold;vertical-align:top;">id</td><td style="vertical-align:top;">:</td><td><div>16L</div></td></tr><tr><td style="font-weight:bold;vertical-align:top;">last_name</td><td style="vertical-align:top;">:</td><td><div>Simpson</div></td></tr><tr><td style="font-weight:bold;vertical-align:top;">registration_id</td><td style="vertical-align:top;">:</td><td><div></div></td></tr><tr><td style="font-weight:bold;vertical-align:top;">registration_key</td><td style="vertical-align:top;">:</td><td><div></div></td></tr><tr><td style="font-weight:bold;vertical-align:top;">reset_password_key</td><td style="vertical-align:top;">:</td><td><div></div></td></tr><tr><td style="font-weight:bold;vertical-align:top;">username</td><td style="vertical-align:top;">:</td><td><div>Rory</div></td></tr></table></div></td></tr><tr><td style="font-weight:bold;vertical-align:top;">user_groups</td><td style="vertical-align:top;">:</td><td><div><table></table></div></td></tr></table></div></td></tr><tr><td style="font-weight:bold;vertical-align:top;">flash</td><td style="vertical-align:top;">:</td><td><div>None</div></td></tr><tr><td style="font-weight:bold;vertical-align:top;">old_url</td><td style="vertical-align:top;">:</td><td><div>http://127.0.0.1:8000/BootUp/default/login</div></td></tr></table></div>'
tRp136
sS'etype'
p137
S"<type 'exceptions.IndexError'>"
p138
sS'date'
p139
S'Fri Nov 28 12:57:31 2014'
p140
sS'response'
p141
g57
(S's}3\x00\x00<div><table><tr><td style="font-weight:bold;vertical-align:top;">body</td><td style="vertical-align:top;">:</td><td><div>&lt;cStringIO.StringO object at 0x7fd7f1c563b0&gt;</div></td></tr><tr><td style="font-weight:bold;vertical-align:top;">cookies</td><td style="vertical-align:top;">:</td><td><div><table><tr><td style="font-weight:bold;vertical-align:top;">session_id_bootup</td><td style="vertical-align:top;">:</td><td><div>127.0.0.1-42c17e25-bbe8-434f-b00b-8cb3b7fc3fc1<table><tr><td style="font-weight:bold;vertical-align:top;">comment</td><td style="vertical-align:top;">:</td><td><div></div></td></tr><tr><td style="font-weight:bold;vertical-align:top;">domain</td><td style="vertical-align:top;">:</td><td><div></div></td></tr><tr><td style="font-weight:bold;vertical-align:top;">expires</td><td style="vertical-align:top;">:</td><td><div></div></td></tr><tr><td style="font-weight:bold;vertical-align:top;">httponly</td><td style="vertical-align:top;">:</td><td><div></div></td></tr><tr><td style="font-weight:bold;vertical-align:top;">max-age</td><td style="vertical-align:top;">:</td><td><div></div></td></tr><tr><td style="font-weight:bold;vertical-align:top;">path</td><td style="vertical-align:top;">:</td><td><div>/</div></td></tr><tr><td style="font-weight:bold;vertical-align:top;">secure</td><td style="vertical-align:top;">:</td><td><div></div></td></tr><tr><td style="font-weight:bold;vertical-align:top;">version</td><td style="vertical-align:top;">:</td><td><div></div></td></tr></table></div></td></tr></table></div></td></tr><tr><td style="font-weight:bold;vertical-align:top;">delimiters</td><td style="vertical-align:top;">:</td><td><div><table><tr><td><div>{{</div></td></tr><tr><td><div>}}</div></td></tr></table></div></td></tr><tr><td style="font-weight:bold;vertical-align:top;">files</td><td style="vertical-align:top;">:</td><td><div><table><tr><td><div>/BootUp/static/js/jquery.js</div></td></tr><tr><td><div>/BootUp/static/css/calendar.css</div></td></tr><tr><td><div>/BootUp/static/js/calendar.js</div></td></tr><tr><td><div>/BootUp/static/js/web2py.js</div></td></tr></table></div></td></tr><tr><td style="font-weight:bold;vertical-align:top;">flash</td><td style="vertical-align:top;">:</td><td><div></div></td></tr><tr><td style="font-weight:bold;vertical-align:top;">form_label_separator</td><td style="vertical-align:top;">:</td><td><div>: </div></td></tr><tr><td style="font-weight:bold;vertical-align:top;">formstyle</td><td style="vertical-align:top;">:</td><td><div>table3cols</div></td></tr><tr><td style="font-weight:bold;vertical-align:top;">generic_patterns</td><td style="vertical-align:top;">:</td><td><div><table><tr><td><div>*</div></td></tr></table></div></td></tr><tr><td style="font-weight:bold;vertical-align:top;">google_analytics_id</td><td style="vertical-align:top;">:</td><td><div>None</div></td></tr><tr><td style="font-weight:bold;vertical-align:top;">headers</td><td style="vertical-align:top;">:</td><td><div><table><tr><td style="font-weight:bold;vertical-align:top;">X-Powered-By</td><td style="vertical-align:top;">:</td><td><div>web2py</div></td></tr></table></div></td></tr><tr><td style="font-weight:bold;vertical-align:top;">logo</td><td style="vertical-align:top;">:</td><td><div><a class="brand" href="http://www.web2py.com/"><b>web<span>2</span>py</b>&trade;&nbsp;</a></div></td></tr><tr><td style="font-weight:bold;vertical-align:top;">menu</td><td style="vertical-align:top;">:</td><td><div><table><tr><td><div><table><tr><td><div>Home</div></td></tr><tr><td><div>False</div></td></tr><tr><td><div>/BootUp/default/index</div></td></tr><tr><td><div><table></table></div></td></tr></table></div></td></tr><tr><td><div><table><tr><td><div><span class="highlighted">web2py</span></div></td></tr><tr><td><div>False</div></td></tr><tr><td><div>http://web2py.com</div></td></tr><tr><td><div><table><tr><td><div><table><tr><td><div>My Sites</div></td></tr><tr><td><div>False</div></td></tr><tr><td><div>/admin/default/site</div></td></tr></table></div></td></tr><tr><td><div><table><tr><td><div>This App</div></td></tr><tr><td><div>False</div></td></tr><tr><td><div>/admin/default/design/BootUp</div></td></tr><tr><td><div>[(&lt;lazyT &#x27;Controller&#x27;&gt;, False, &#x27;/admin/default/edit/BootUp/controllers/default.py&#x27;), (&lt;lazyT &#x27;View&#x27;&gt;, False, &#x27;/admin/default/edit/BootUp/views/default/index.html&#x27;), (&lt;lazyT &#x27;Layout&#x27;&gt;, False, &#x27;/admin/default/edit/BootUp/views/layout.html&#x27;), (&lt;lazyT &#x27;Stylesheet&#x27;&gt;, False, &#x27;/admin/default/edit/BootUp/static/css/web2py.css&#x27;), (&lt;lazyT &#x27;DB Model&#x27;&gt;, False, &#x27;/admin/default/edit/BootUp/models/db.py&#x27;), (&lt;lazyT &#x27;Menu Model&#x27;&gt;, False, &#x27;/admin/default/edit/BootUp/models/menu.py&#x27;), (&lt;lazyT &#x27;Database&#x27;&gt;, False, &#x27;/BootUp/appadmin/index&#x27;), (&lt;lazyT &#x27;Errors&#x27;&gt;, False, &#x27;/admin/default/errors/BootUp&#x27;), (&lt;lazyT &#x27;About&#x27;&gt;, False, &#x27;/admin/default/about/BootUp&#x27;)]</div></td></tr></table></div></td></tr><tr><td><div><table><tr><td><div>web2py.com</div></td></tr><tr><td><div>False</div></td></tr><tr><td><div>http://www.web2py.com</div></td></tr><tr><td><div>[(&lt;lazyT &#x27;Download&#x27;&gt;, False, &#x27;http://www.web2py.com/examples/default/download&#x27;), (&lt;lazyT &#x27;Support&#x27;&gt;, False, &#x27;http://www.web2py.com/examples/default/support&#x27;), (&lt;lazyT &#x27;Demo&#x27;&gt;, False, &#x27;http://web2py.com/demo_admin&#x27;), (&lt;lazyT &#x27;Quick Examples&#x27;&gt;, False, &#x27;http://web2py.com/examples/default/examples&#x27;), (&lt;lazyT &#x27;FAQ&#x27;&gt;, False, &#x27;http://web2py.com/AlterEgo&#x27;), (&lt;lazyT &#x27;Videos&#x27;&gt;, False, &#x27;http://www.web2py.com/examples/default/videos/&#x27;), (&lt;lazyT &#x27;Free Applications&#x27;&gt;, False, &#x27;http://web2py.com/appliances&#x27;), (&lt;lazyT &#x27;Plugins&#x27;&gt;, False, &#x27;http://web2py.com/plugins&#x27;), (&lt;lazyT &#x27;Layouts&#x27;&gt;, False, &#x27;http://web2py.com/layouts&#x27;), (&lt;lazyT &#x27;Recipes&#x27;&gt;, False, &#x27;http://web2pyslices.com/&#x27;), (&lt;lazyT &#x27;Semantic&#x27;&gt;, False, &#x27;http://web2py.com/semantic&#x27;)]</div></td></tr></table></div></td></tr><tr><td><div><table><tr><td><div>Documentation</div></td></tr><tr><td><div>False</div></td></tr><tr><td><div>http://www.web2py.com/book</div></td></tr><tr><td><div>[(&lt;lazyT &#x27;Preface&#x27;&gt;, False, &#x27;http://www.web2py.com/book/default/chapter/00&#x27;), (&lt;lazyT &#x27;Introduction&#x27;&gt;, False, &#x27;http://www.web2py.com/book/default/chapter/01&#x27;), (&lt;lazyT &#x27;Python&#x27;&gt;, False, &#x27;http://www.web2py.com/book/default/chapter/02&#x27;), (&lt;lazyT &#x27;Overview&#x27;&gt;, False, &#x27;http://www.web2py.com/book/default/chapter/03&#x27;), (&lt;lazyT &#x27;The Core&#x27;&gt;, False, &#x27;http://www.web2py.com/book/default/chapter/04&#x27;), (&lt;lazyT &#x27;The Views&#x27;&gt;, False, &#x27;http://www.web2py.com/book/default/chapter/05&#x27;), (&lt;lazyT &#x27;Database&#x27;&gt;, False, &#x27;http://www.web2py.com/book/default/chapter/06&#x27;), (&lt;lazyT &#x27;Forms and Validators&#x27;&gt;, False, &#x27;http://www.web2py.com/book/default/chapter/07&#x27;), (&lt;lazyT &#x27;Email and SMS&#x27;&gt;, False, &#x27;http://www.web2py.com/book/default/chapter/08&#x27;), (&lt;lazyT &#x27;Access Control&#x27;&gt;, False, &#x27;http://www.web2py.com/book/default/chapter/09&#x27;), (&lt;lazyT &#x27;Services&#x27;&gt;, False, &#x27;http://www.web2py.com/book/default/chapter/10&#x27;), (&lt;lazyT &#x27;Ajax Recipes&#x27;&gt;, False, &#x27;http://www.web2py.com/book/default/chapter/11&#x27;), (&lt;lazyT &#x27;Components and Plugins&#x27;&gt;, False, &#x27;http://www.web2py.com/book/default/chapter/12&#x27;), (&lt;lazyT &#x27;Deployment Recipes&#x27;&gt;, False, &#x27;http://www.web2py.com/book/default/chapter/13&#x27;), (&lt;lazyT &#x27;Other Recipes&#x27;&gt;, False, &#x27;http://www.web2py.com/book/default/chapter/14&#x27;), (&lt;lazyT &#x27;Buy this book&#x27;&gt;, False, &#x27;http://stores.lulu.com/web2py&#x27;)]</div></td></tr></table></div></td></tr><tr><td><div><table><tr><td><div>Community</div></td></tr><tr><td><div>False</div></td></tr><tr><td><div>None</div></td></tr><tr><td><div>[(&lt;lazyT &#x27;Groups&#x27;&gt;, False, &#x27;http://www.web2py.com/examples/default/usergroups&#x27;), (&lt;lazyT &#x27;Twitter&#x27;&gt;, False, &#x27;http://twitter.com/web2py&#x27;), (&lt;lazyT &#x27;Live Chat&#x27;&gt;, False, &#x27;http://webchat.freenode.net/?channels=web2py&#x27;)]</div></td></tr></table></div></td></tr><tr><td><div><table><tr><td><div>Plugins</div></td></tr><tr><td><div>False</div></td></tr><tr><td><div>None</div></td></tr><tr><td><div>[(&#x27;plugin_wiki&#x27;, False, &#x27;http://web2py.com/examples/default/download&#x27;), (&lt;lazyT &#x27;Other Plugins&#x27;&gt;, False, &#x27;http://web2py.com/plugins&#x27;), (&lt;lazyT &#x27;Layout Plugins&#x27;&gt;, False, &#x27;http://web2py.com/layouts&#x27;)]</div></td></tr></table></div></td></tr></table></div></td></tr></table></div></td></tr></table></div></td></tr><tr><td style="font-weight:bold;vertical-align:top;">meta</td><td style="vertical-align:top;">:</td><td><div><table><tr><td style="font-weight:bold;vertical-align:top;">author</td><td style="vertical-align:top;">:</td><td><div>Your Name &lt;you@example.com&gt;</div></td></tr><tr><td style="font-weight:bold;vertical-align:top;">generator</td><td style="vertical-align:top;">:</td><td><div>Web2py Web Framework</div></td></tr><tr><td style="font-weight:bold;vertical-align:top;">keywords</td><td style="vertical-align:top;">:</td><td><div>web2py, python, framework</div></td></tr></table></div></td></tr><tr><td style="font-weight:bold;vertical-align:top;">models_to_run</td><td style="vertical-align:top;">:</td><td><div><table><tr><td><div>^\\w+\\.py$</div></td></tr><tr><td><div>^default/\\w+\\.py$</div></td></tr><tr><td><div>^default/index/\\w+\\.py$</div></td></tr></table></div></td></tr><tr><td style="font-weight:bold;vertical-align:top;">postprocessing</td><td style="vertical-align:top;">:</td><td><div><table></table></div></td></tr><tr><td style="font-weight:bold;vertical-align:top;">session_client</td><td style="vertical-align:top;">:</td><td><div>127.0.0.1</div></td></tr><tr><td style="font-weight:bold;vertical-align:top;">session_cookie_compression_level</td><td style="vertical-align:top;">:</td><td><div>None</div></td></tr><tr><td style="font-weight:bold;vertical-align:top;">session_cookie_expires</td><td style="vertical-align:top;">:</td><td><div>None</div></td></tr><tr><td style="font-weight:bold;vertical-align:top;">session_cookie_key</td><td style="vertical-align:top;">:</td><td><div>None</div></td></tr><tr><td style="font-weight:bold;vertical-align:top;">session_data_name</td><td style="vertical-align:top;">:</td><td><div>session_data_bootup</div></td></tr><tr><td style="font-weight:bold;vertical-align:top;">session_file</td><td style="vertical-align:top;">:</td><td><div>&lt;open file &#x27;/usr/userfs/r/rs1019/iapt/web2py/applications/BootUp/sessions/172/077/127.0.0.1-42c17e25-bbe8-434f-b00b-8cb3b7fc3fc1&#x27;, mode &#x27;rb+&#x27; at 0x7fd7f1bab4b0&gt;</div></td></tr><tr><td style="font-weight:bold;vertical-align:top;">session_filename</td><td style="vertical-align:top;">:</td><td><div>/usr/userfs/r/rs1019/iapt/web2py/applications/BootUp/sessions/127.0.0.1-42c17e25-bbe8-434f-b00b-8cb3b7fc3fc1</div></td></tr><tr><td style="font-weight:bold;vertical-align:top;">session_hash</td><td style="vertical-align:top;">:</td><td><div>7b9ddf22a0707a8595b77d71615afef5</div></td></tr><tr><td style="font-weight:bold;vertical-align:top;">session_id</td><td style="vertical-align:top;">:</td><td><div>127.0.0.1-42c17e25-bbe8-434f-b00b-8cb3b7fc3fc1</div></td></tr><tr><td style="font-weight:bold;vertical-align:top;">session_id_name</td><td style="vertical-align:top;">:</td><td><div>session_id_bootup</div></td></tr><tr><td style="font-weight:bold;vertical-align:top;">session_locked</td><td style="vertical-align:top;">:</td><td><div>True</div></td></tr><tr><td style="font-weight:bold;vertical-align:top;">session_masterapp</td><td style="vertical-align:top;">:</td><td><div>BootUp</div></td></tr><tr><td style="font-weight:bold;vertical-align:top;">session_new</td><td style="vertical-align:top;">:</td><td><div>False</div></td></tr><tr><td style="font-weight:bold;vertical-align:top;">session_storage_type</td><td style="vertical-align:top;">:</td><td><div>file</div></td></tr><tr><td style="font-weight:bold;vertical-align:top;">status</td><td style="vertical-align:top;">:</td><td><div>200</div></td></tr><tr><td style="font-weight:bold;vertical-align:top;">subtitle</td><td style="vertical-align:top;">:</td><td><div></div></td></tr><tr><td style="font-weight:bold;vertical-align:top;">title</td><td style="vertical-align:top;">:</td><td><div>Bootup</div></td></tr><tr><td style="font-weight:bold;vertical-align:top;">view</td><td style="vertical-align:top;">:</td><td><div>default/index.html</div></td></tr></table></div>'
tRp142
sS'locals'
p143
(dp144
S'i'
S'0'
sS'self'
p145
S'<Rows (0)>'
p146
sssS'traceback'
p147
S'Traceback (most recent call last):\n  File "/usr/userfs/r/rs1019/iapt/web2py/gluon/restricted.py", line 224, in restricted\n    exec ccode in environment\n  File "/usr/userfs/r/rs1019/iapt/web2py/applications/BootUp/views/default/index.html", line 76, in <module>\n    <hr>\n  File "/usr/userfs/r/rs1019/iapt/web2py/gluon/dal.py", line 11062, in __getitem__\n    row = self.records[i]\nIndexError: list index out of range\n'
p148
s.